Archive member included to satisfy reference by file (symbol)

arch/arm/lib/lib.a(ashldi3.o)
                              drivers/mmc/built-in.o (__aeabi_llsl)
arch/arm/lib/lib.a(lib1funcs.o)
                              cmd/built-in.o (__aeabi_uidiv)
arch/arm/lib/lib.a(lshrdi3.o)
                              fs/built-in.o (__aeabi_llsr)
arch/arm/lib/lib.a(div0.o)    arch/arm/lib/lib.a(lib1funcs.o) (__div0)

Discarded input sections

 .data          0x0000000000000000        0x0 arch/arm/cpu/armv7/start.o
 .bss           0x0000000000000000        0x0 arch/arm/cpu/armv7/start.o
 .text.mmu_page_table_flush
                0x0000000000000000       0x24 arch/arm/cpu/armv7/built-in.o
 .text.v7_arch_cp15_set_l2aux_ctrl
                0x0000000000000000        0x8 arch/arm/cpu/armv7/built-in.o
 .text.v7_arch_cp15_set_acr
                0x0000000000000000        0x8 arch/arm/cpu/armv7/built-in.o
 .text.sdelay   0x0000000000000000        0xc arch/arm/cpu/armv7/built-in.o
 .text.wait_on_value
                0x0000000000000000       0x38 arch/arm/cpu/armv7/built-in.o
 .text.smp_kick_all_cpus
                0x0000000000000000       0x20 arch/arm/cpu/armv7/built-in.o
 .data          0x0000000000000000        0x0 arch/arm/cpu/armv7/built-in.o
 .bss           0x0000000000000000        0x0 arch/arm/cpu/armv7/built-in.o
 .text.enable_caches
                0x0000000000000000        0xc arch/arm/lib/built-in.o
 .text.invalidate_dcache_range
                0x0000000000000000        0x4 arch/arm/lib/built-in.o
 .text.flush_dcache_range
                0x0000000000000000        0x4 arch/arm/lib/built-in.o
 .text.flush_dcache_all
                0x0000000000000000        0xc arch/arm/lib/built-in.o
 .text.arm_init_before_mmu
                0x0000000000000000        0x4 arch/arm/lib/built-in.o
 .text.mmu_page_table_flush
                0x0000000000000000        0x4 arch/arm/lib/built-in.o
 .text.mmu_set_region_dcache_behaviour
                0x0000000000000000       0x58 arch/arm/lib/built-in.o
 .text.icache_status
                0x0000000000000000        0xc arch/arm/lib/built-in.o
 .data          0x0000000000000000        0x0 arch/arm/lib/built-in.o
 .bss           0x0000000000000000        0x0 arch/arm/lib/built-in.o
 .text          0x0000000000000000        0x0 arch/arm/mach-sunxi/built-in.o
 .text.gtbus_init
                0x0000000000000000        0x4 arch/arm/mach-sunxi/built-in.o
 .text.mctl_await_completion
                0x0000000000000000       0x4c arch/arm/mach-sunxi/built-in.o
 .text.mctl_mem_matches
                0x0000000000000000       0x48 arch/arm/mach-sunxi/built-in.o
 .text.sunxi_gpio_get_cfgpin
                0x0000000000000000       0x30 arch/arm/mach-sunxi/built-in.o
 .text.sunxi_usb_phy_enable_squelch_detect
                0x0000000000000000       0x28 arch/arm/mach-sunxi/built-in.o
 .text.sunxi_usb_phy_power_off
                0x0000000000000000       0x30 arch/arm/mach-sunxi/built-in.o
 .text.sunxi_usb_phy_vbus_detect
                0x0000000000000000       0x58 arch/arm/mach-sunxi/built-in.o
 .text.sunxi_usb_phy_id_detect
                0x0000000000000000       0x1c arch/arm/mach-sunxi/built-in.o
 .text.sunxi_usb_phy_remove
                0x0000000000000000       0x68 arch/arm/mach-sunxi/built-in.o
 .text.clock_get_pll3
                0x0000000000000000       0x24 arch/arm/mach-sunxi/built-in.o
 .text.pmic_bus_init
                0x0000000000000000       0x20 arch/arm/mach-sunxi/built-in.o
 .text.pmic_bus_read
                0x0000000000000000       0x24 arch/arm/mach-sunxi/built-in.o
 .text.pmic_bus_setbits
                0x0000000000000000       0x38 arch/arm/mach-sunxi/built-in.o
 .text.pmic_bus_clrbits
                0x0000000000000000       0x38 arch/arm/mach-sunxi/built-in.o
 .data          0x0000000000000000       0x18 arch/arm/mach-sunxi/built-in.o
 .data.needs_init.7443
                0x0000000000000000        0x4 arch/arm/mach-sunxi/built-in.o
 .bss           0x0000000000000000        0x0 arch/arm/mach-sunxi/built-in.o
 .text          0x0000000000000000        0x0 board/sunxi/built-in.o
 .text.sunxi_dram_init
                0x0000000000000000        0xc board/sunxi/built-in.o
 .data          0x0000000000000000        0x0 board/sunxi/built-in.o
 .data.dram_para
                0x0000000000000000       0x58 board/sunxi/built-in.o
 .bss           0x0000000000000000        0x0 board/sunxi/built-in.o
 .text          0x0000000000000000        0x0 cmd/built-in.o
 .text.bootz_setup
                0x0000000000000000       0x18 cmd/built-in.o
 .text.sunxi_name_to_gpio
                0x0000000000000000        0xc cmd/built-in.o
 .text.i2c_init_board
                0x0000000000000000        0x4 cmd/built-in.o
 .data          0x0000000000000000        0x0 cmd/built-in.o
 .bss           0x0000000000000000        0x0 cmd/built-in.o
 .text          0x0000000000000000        0x0 common/built-in.o
 .text.hash_finish_crc32
                0x0000000000000000       0x30 common/built-in.o
 .text.hash_update_crc32
                0x0000000000000000       0x24 common/built-in.o
 .text.hash_init_crc32
                0x0000000000000000       0x24 common/built-in.o
 .text.hash_lookup_algo
                0x0000000000000000       0x28 common/built-in.o
 .text.hash_progressive_lookup_algo
                0x0000000000000000       0x3c common/built-in.o
 .text.hash_parse_string
                0x0000000000000000       0x68 common/built-in.o
 .text.hash_block
                0x0000000000000000       0x6c common/built-in.o
 .text.unset_local_var
                0x0000000000000000       0xa0 common/built-in.o
 .text.red_led_off
                0x0000000000000000        0x4 common/built-in.o
 .text.green_led_on
                0x0000000000000000        0x4 common/built-in.o
 .text.green_led_off
                0x0000000000000000        0x4 common/built-in.o
 .text.yellow_led_on
                0x0000000000000000        0x4 common/built-in.o
 .text.yellow_led_off
                0x0000000000000000        0x4 common/built-in.o
 .text.blue_led_on
                0x0000000000000000        0x4 common/built-in.o
 .text.blue_led_off
                0x0000000000000000        0x4 common/built-in.o
 .text.board_get_usable_ram_top
                0x0000000000000000       0x14 common/built-in.o
 .text.arch_reserve_stacks
                0x0000000000000000        0x8 common/built-in.o
 .text.board_flash_wp_on
                0x0000000000000000        0x8 common/built-in.o
 .text.fixup_cpu
                0x0000000000000000        0x8 common/built-in.o
 .text.env_flags_parse_varaccess_from_binflags
                0x0000000000000000       0x54 common/built-in.o
 .text.fdt_read_prop
                0x0000000000000000       0x64 common/built-in.o
 .text.fdt_getprop_u32_default_node
                0x0000000000000000       0x40 common/built-in.o
 .text.fdt_getprop_u32_default
                0x0000000000000000       0x3c common/built-in.o
 .text.do_fixup_by_path_u32
                0x0000000000000000       0x2c common/built-in.o
 .text.do_fixup_by_prop
                0x0000000000000000       0x9c common/built-in.o
 .text.do_fixup_by_prop_u32
                0x0000000000000000       0x38 common/built-in.o
 .text.do_fixup_by_compat
                0x0000000000000000       0x8c common/built-in.o
 .text.do_fixup_by_compat_u32
                0x0000000000000000       0x2c common/built-in.o
 .text.fdt_increase_size
                0x0000000000000000       0x14 common/built-in.o
 .text.fdt_del_node_and_alias
                0x0000000000000000       0x44 common/built-in.o
 .text.fdt_node_offset_by_compat_reg
                0x0000000000000000       0x88 common/built-in.o
 .text.fdt_alloc_phandle
                0x0000000000000000       0x58 common/built-in.o
 .text.fdt_set_phandle
                0x0000000000000000       0x60 common/built-in.o
 .text.fdt_create_phandle
                0x0000000000000000       0x64 common/built-in.o
 .text.fdt_set_node_status
                0x0000000000000000       0xf4 common/built-in.o
 .text.fdt_set_status_by_alias
                0x0000000000000000       0x2c common/built-in.o
 .text.fdt_add_edid
                0x0000000000000000       0xa8 common/built-in.o
 .text.fdt_verify_alias_address
                0x0000000000000000       0xd0 common/built-in.o
 .text.fdt_get_base_address
                0x0000000000000000       0x54 common/built-in.o
 .text.fdt_read_range
                0x0000000000000000      0x13c common/built-in.o
 .text.fdt_fixup_display
                0x0000000000000000       0xd4 common/built-in.o
 .text.mdio_register_seq
                0x0000000000000000       0x34 common/built-in.o
 .text.usb_submit_int_msg
                0x0000000000000000        0x4 common/built-in.o
 .text.usb_get_report
                0x0000000000000000       0x5c common/built-in.o
 .text.usb_get_class_descriptor
                0x0000000000000000       0x5c common/built-in.o
 .text.board_usb_init
                0x0000000000000000        0x8 common/built-in.o
 .text.board_usb_cleanup
                0x0000000000000000        0x8 common/built-in.o
 .text.hub_port_reset
                0x0000000000000000       0x20 common/built-in.o
 .text.usb_hub_probe
                0x0000000000000000       0x54 common/built-in.o
 .text.iomux_printdevs
                0x0000000000000000       0x58 common/built-in.o
 .text.edid_get_ranges
                0x0000000000000000       0x88 common/built-in.o
 .text.edid_get_timing
                0x0000000000000000      0x1d0 common/built-in.o
 .text.splash_screen_prepare
                0x0000000000000000        0x8 common/built-in.o
 .text.menu_default_choice
                0x0000000000000000       0x1c common/built-in.o
 .text.overwrite_console
                0x0000000000000000        0x8 common/built-in.o
 .text.fgetc    0x0000000000000000       0x40 common/built-in.o
 .text.ftstc    0x0000000000000000       0x14 common/built-in.o
 .text.fputc    0x0000000000000000        0xc common/built-in.o
 .text.confirm_yesno
                0x0000000000000000       0xd4 common/built-in.o
 .text.valloc   0x0000000000000000        0xc common/built-in.o
 .text.pvalloc  0x0000000000000000       0x18 common/built-in.o
 .text.cfree    0x0000000000000000        0x4 common/built-in.o
 .text.malloc_usable_size
                0x0000000000000000       0x3c common/built-in.o
 .text.mallopt  0x0000000000000000       0x54 common/built-in.o
 .text.memalign_simple
                0x0000000000000000       0x44 common/built-in.o
 .text.genimg_get_short_name
                0x0000000000000000       0x1c common/built-in.o
 .text.genimg_get_cat_name
                0x0000000000000000       0x5c common/built-in.o
 .text.genimg_get_cat_short_name
                0x0000000000000000       0x5c common/built-in.o
 .text.genimg_get_cat_count
                0x0000000000000000       0x18 common/built-in.o
 .text.genimg_get_cat_desc
                0x0000000000000000       0x18 common/built-in.o
 .text.genimg_get_type_short_name
                0x0000000000000000       0x10 common/built-in.o
 .text.genimg_get_comp_short_name
                0x0000000000000000       0x10 common/built-in.o
 .text.genimg_get_os_short_name
                0x0000000000000000       0x10 common/built-in.o
 .text.genimg_get_arch_short_name
                0x0000000000000000       0x10 common/built-in.o
 .text.get_table_entry_id
                0x0000000000000000       0x4c common/built-in.o
 .text.genimg_get_os_id
                0x0000000000000000       0x18 common/built-in.o
 .text.genimg_get_arch_id
                0x0000000000000000       0x18 common/built-in.o
 .text.genimg_get_type_id
                0x0000000000000000       0x18 common/built-in.o
 .text.genimg_get_comp_id
                0x0000000000000000       0x18 common/built-in.o
 .text.stdio_deregister
                0x0000000000000000       0x28 common/built-in.o
 .text.stdio_init
                0x0000000000000000       0x14 common/built-in.o
 .text.cli_simple_parse_line
                0x0000000000000000       0x8c common/built-in.o
 .text.cli_simple_run_command
                0x0000000000000000      0x150 common/built-in.o
 .text.cli_simple_loop
                0x0000000000000000       0x7c common/built-in.o
 .text.cli_simple_run_command_list
                0x0000000000000000       0x70 common/built-in.o
 .text.run_command_repeatable
                0x0000000000000000       0x1c common/built-in.o
 .rodata.unknown_str.8688
                0x0000000000000000        0x9 common/built-in.o
 .rodata.table_info
                0x0000000000000000       0x30 common/built-in.o
 .data          0x0000000000000000        0x0 common/built-in.o
 .data.hash_algo
                0x0000000000000000       0x1c common/built-in.o
 .bss           0x0000000000000000        0x0 common/built-in.o
 .bss.env_ptr   0x0000000000000000        0x4 common/built-in.o
 .bss.save_addr
                0x0000000000000000        0x4 common/built-in.o
 .bss.msg.8689  0x0000000000000000       0x1e common/built-in.o
 .bss.save_size
                0x0000000000000000        0x4 common/built-in.o
 .bss.lastcommand.7247
                0x0000000000000000      0x401 common/built-in.o
 .text          0x0000000000000000        0x0 disk/built-in.o
 .text.part_get_info_by_name
                0x0000000000000000       0x9c disk/built-in.o
 .text.is_valid_dos_buf
                0x0000000000000000       0x18 disk/built-in.o
 .text.write_mbr_partition
                0x0000000000000000       0x78 disk/built-in.o
 .text.set_protective_mbr
                0x0000000000000000      0x11c disk/built-in.o
 .text.write_gpt_table
                0x0000000000000000      0x41c disk/built-in.o
 .text.gpt_fill_pte
                0x0000000000000000      0x300 disk/built-in.o
 .text.gpt_fill_header
                0x0000000000000000      0x23c disk/built-in.o
 .text.gpt_restore
                0x0000000000000000       0xf4 disk/built-in.o
 .text.gpt_verify_headers
                0x0000000000000000       0x78 disk/built-in.o
 .text.gpt_verify_partitions
                0x0000000000000000      0x270 disk/built-in.o
 .text.is_valid_gpt_buf
                0x0000000000000000       0x78 disk/built-in.o
 .text.write_mbr_and_gpt_partitions
                0x0000000000000000      0x48c disk/built-in.o
 .rodata        0x0000000000000000       0x10 disk/built-in.o
 .rodata.__func__.7196
                0x0000000000000000       0x14 disk/built-in.o
 .rodata.__func__.8536
                0x0000000000000000       0x16 disk/built-in.o
 .rodata.__func__.8450
                0x0000000000000000       0x13 disk/built-in.o
 .rodata.__func__.8505
                0x0000000000000000        0xc disk/built-in.o
 .rodata.__func__.8556
                0x0000000000000000       0x1d disk/built-in.o
 .rodata.__func__.8523
                0x0000000000000000       0x13 disk/built-in.o
 .data          0x0000000000000000        0x0 disk/built-in.o
 .bss           0x0000000000000000        0x0 disk/built-in.o
 .text          0x0000000000000000        0x0 drivers/built-in.o
 .text._device_find_global_by_of_offset
                0x0000000000000000       0x50 drivers/built-in.o
 .text.device_find_child_by_seq
                0x0000000000000000       0x64 drivers/built-in.o
 .text.device_get_child_by_seq
                0x0000000000000000       0x64 drivers/built-in.o
 .text.device_find_child_by_of_offset
                0x0000000000000000       0x44 drivers/built-in.o
 .text.device_get_child_by_of_offset
                0x0000000000000000       0x3c drivers/built-in.o
 .text.device_get_global_by_of_offset
                0x0000000000000000       0x40 drivers/built-in.o
 .text.dev_get_parent
                0x0000000000000000        0x8 drivers/built-in.o
 .text.dev_get_driver_ops
                0x0000000000000000       0x10 drivers/built-in.o
 .text.dev_get_uclass_name
                0x0000000000000000       0x14 drivers/built-in.o
 .text.dev_get_addr_size_index
                0x0000000000000000       0x40 drivers/built-in.o
 .text.dev_get_addr_name
                0x0000000000000000       0x34 drivers/built-in.o
 .text.dev_get_addr_ptr
                0x0000000000000000        0x8 drivers/built-in.o
 .text.dev_map_physmem
                0x0000000000000000       0x14 drivers/built-in.o
 .text.device_has_children
                0x0000000000000000       0x14 drivers/built-in.o
 .text.device_set_name_alloced
                0x0000000000000000       0x10 drivers/built-in.o
 .text.device_set_name
                0x0000000000000000       0x30 drivers/built-in.o
 .text.of_device_is_compatible
                0x0000000000000000       0x24 drivers/built-in.o
 .text.of_machine_is_compatible
                0x0000000000000000       0x24 drivers/built-in.o
 .text.dm_fixup_for_gd_move
                0x0000000000000000       0x20 drivers/built-in.o
 .text.dm_set_translation_offset
                0x0000000000000000       0x18 drivers/built-in.o
 .text.dm_uninit
                0x0000000000000000       0x20 drivers/built-in.o
 .text.uclass_destroy
                0x0000000000000000       0x9c drivers/built-in.o
 .text.uclass_get_name
                0x0000000000000000       0x28 drivers/built-in.o
 .text.uclass_find_device_by_name
                0x0000000000000000       0x8c drivers/built-in.o
 .text.uclass_get_device_by_driver
                0x0000000000000000       0x68 drivers/built-in.o
 .text.uclass_get_device_by_name
                0x0000000000000000       0x30 drivers/built-in.o
 .text.uclass_get_device_by_phandle
                0x0000000000000000       0xac drivers/built-in.o
 .text.uclass_first_device_err
                0x0000000000000000       0x28 drivers/built-in.o
 .text.dm_dbg   0x0000000000000000       0x28 drivers/built-in.o
 .text.list_count_items
                0x0000000000000000       0x20 drivers/built-in.o
 .text.simple_bus_translate
                0x0000000000000000       0x38 drivers/built-in.o
 .text.scsi_low_level_init
                0x0000000000000000       0x40 drivers/built-in.o
 .text.scsi_init
                0x0000000000000000        0x4 drivers/built-in.o
 .text.ata_dev_classify
                0x0000000000000000       0x4c drivers/built-in.o
 .text.ata_id_c_string
                0x0000000000000000       0x78 drivers/built-in.o
 .text.ata_dump_id
                0x0000000000000000      0x128 drivers/built-in.o
 .text.video_position_cursor
                0x0000000000000000       0x54 drivers/built-in.o
 .text.video_get_pixel_width
                0x0000000000000000       0x14 drivers/built-in.o
 .text.video_get_pixel_height
                0x0000000000000000       0x14 drivers/built-in.o
 .text.video_get_screen_rows
                0x0000000000000000       0x1c drivers/built-in.o
 .text.video_get_screen_columns
                0x0000000000000000       0x18 drivers/built-in.o
 .text.video_get_params
                0x0000000000000000      0x4d8 drivers/built-in.o
 .text._input_send_keycodes
                0x0000000000000000      0x43c drivers/built-in.o
 .text.input_send_keycodes
                0x0000000000000000        0x8 drivers/built-in.o
 .text.input_add_keycode
                0x0000000000000000       0x84 drivers/built-in.o
 .text.input_add_table
                0x0000000000000000       0x40 drivers/built-in.o
 .text.input_set_delays
                0x0000000000000000        0xc drivers/built-in.o
 .text.input_allow_repeats
                0x0000000000000000        0x8 drivers/built-in.o
 .text.input_leds_changed
                0x0000000000000000       0x14 drivers/built-in.o
 .text.input_add_tables
                0x0000000000000000       0x74 drivers/built-in.o
 .text.input_stdio_register
                0x0000000000000000       0x54 drivers/built-in.o
 .text.create_keymap
                0x0000000000000000       0x94 drivers/built-in.o
 .text.key_matrix_decode
                0x0000000000000000       0xec drivers/built-in.o
 .text.key_matrix_decode_fdt
                0x0000000000000000       0xc4 drivers/built-in.o
 .text.key_matrix_init
                0x0000000000000000       0x3c drivers/built-in.o
 .rodata.composite_video_modes
                0x0000000000000000       0x68 drivers/built-in.o
 .rodata.vesa_modes
                0x0000000000000000       0xe4 drivers/built-in.o
 .rodata.kbd_to_ansi364
                0x0000000000000000       0x20 drivers/built-in.o
 .rodata.kbd_plain_xlate
                0x0000000000000000       0x64 drivers/built-in.o
 .rodata.kbd_plain_xlate_german
                0x0000000000000000       0x84 drivers/built-in.o
 .rodata.CSWTCH.33
                0x0000000000000000        0xd drivers/built-in.o
 .data          0x0000000000000000        0x0 drivers/built-in.o
 .data.kbd_ctrl_xlate
                0x0000000000000000       0x64 drivers/built-in.o
 .data.kbd_right_alt_xlate_german
                0x0000000000000000       0x58 drivers/built-in.o
 .data.kbd_shift_xlate_german
                0x0000000000000000       0x84 drivers/built-in.o
 .data.kbd_entry
                0x0000000000000000       0x8c drivers/built-in.o
 .data.kbd_shift_xlate
                0x0000000000000000       0x64 drivers/built-in.o
 .bss           0x0000000000000000        0x0 drivers/built-in.o
 .text          0x0000000000000000        0x0 drivers/gpio/built-in.o
 .text.gpio_requestf
                0x0000000000000000       0x44 drivers/gpio/built-in.o
 .text.dm_gpio_get_open_drain
                0x0000000000000000       0x50 drivers/gpio/built-in.o
 .text.dm_gpio_set_open_drain
                0x0000000000000000       0x54 drivers/gpio/built-in.o
 .text.dm_gpio_set_dir
                0x0000000000000000        0x8 drivers/gpio/built-in.o
 .text.gpio_claim_vector
                0x0000000000000000       0x88 drivers/gpio/built-in.o
 .text.gpio_get_values_as_int
                0x0000000000000000       0x44 drivers/gpio/built-in.o
 .text.dm_gpio_get_values_as_int
                0x0000000000000000       0x4c drivers/gpio/built-in.o
 .text.gpio_get_list_count
                0x0000000000000000       0x38 drivers/gpio/built-in.o
 .text.dm_gpio_free
                0x0000000000000000       0x10 drivers/gpio/built-in.o
 .text.gpio_free_list
                0x0000000000000000       0x3c drivers/gpio/built-in.o
 .text.gpio_free_list_nodev
                0x0000000000000000       0x10 drivers/gpio/built-in.o
 .text.gpio_request_list_by_name_nodev
                0x0000000000000000       0x94 drivers/gpio/built-in.o
 .text.gpio_request_list_by_name
                0x0000000000000000       0x2c drivers/gpio/built-in.o
 .text.gpio_get_number
                0x0000000000000000       0x20 drivers/gpio/built-in.o
 .text.sunxi_name_to_gpio_bank
                0x0000000000000000       0x38 drivers/gpio/built-in.o
 .data          0x0000000000000000        0x0 drivers/gpio/built-in.o
 .bss           0x0000000000000000        0x0 drivers/gpio/built-in.o
 .text          0x0000000000000000        0x0 drivers/i2c/built-in.o
 .text.i2c_init_board
                0x0000000000000000        0x4 drivers/i2c/built-in.o
 .text.i2c_early_init_f
                0x0000000000000000        0x4 drivers/i2c/built-in.o
 .text.i2c_reg_read
                0x0000000000000000       0x20 drivers/i2c/built-in.o
 .text.i2c_reg_write
                0x0000000000000000       0x20 drivers/i2c/built-in.o
 .data          0x0000000000000000        0x0 drivers/i2c/built-in.o
 .bss           0x0000000000000000        0x0 drivers/i2c/built-in.o
 .text          0x0000000000000000        0x0 drivers/mmc/built-in.o
 .text.mmc_destroy
                0x0000000000000000        0x4 drivers/mmc/built-in.o
 .text.board_mmc_init
                0x0000000000000000        0x8 drivers/mmc/built-in.o
 .text.mmc_set_preinit
                0x0000000000000000        0x8 drivers/mmc/built-in.o
 .data          0x0000000000000000        0x0 drivers/mmc/built-in.o
 .bss           0x0000000000000000        0x0 drivers/mmc/built-in.o
 .text          0x0000000000000000        0x0 drivers/net/built-in.o
 .data          0x0000000000000000        0x0 drivers/net/built-in.o
 .bss           0x0000000000000000        0x0 drivers/net/built-in.o
 .text          0x0000000000000000        0x0 drivers/net/phy/built-in.o
 .text.miiphy_reset
                0x0000000000000000       0x24 drivers/net/phy/built-in.o
 .text.phy_connect
                0x0000000000000000       0x50 drivers/net/phy/built-in.o
 .data          0x0000000000000000        0x0 drivers/net/phy/built-in.o
 .bss           0x0000000000000000        0x0 drivers/net/phy/built-in.o
 .text          0x0000000000000000        0x0 drivers/power/built-in.o
 .text.axp_set_dcdc2
                0x0000000000000000       0x98 drivers/power/built-in.o
 .text.axp_set_dcdc3
                0x0000000000000000       0x68 drivers/power/built-in.o
 .text.axp_set_aldo2
                0x0000000000000000       0x94 drivers/power/built-in.o
 .text.axp_set_aldo3
                0x0000000000000000       0x6c drivers/power/built-in.o
 .text.axp_set_aldo4
                0x0000000000000000       0x8c drivers/power/built-in.o
 .text.axp_init
                0x0000000000000000       0x9c drivers/power/built-in.o
 .rodata.vindex.7133
                0x0000000000000000       0x40 drivers/power/built-in.o
 .data          0x0000000000000000        0x0 drivers/power/built-in.o
 .bss           0x0000000000000000        0x0 drivers/power/built-in.o
 .text          0x0000000000000000        0x0 drivers/serial/built-in.o
 .text.ns16550_calc_divisor
                0x0000000000000000       0x18 drivers/serial/built-in.o
 .text.NS16550_reinit
                0x0000000000000000       0x58 drivers/serial/built-in.o
 .text.NS16550_putc
                0x0000000000000000       0x34 drivers/serial/built-in.o
 .text.NS16550_getc
                0x0000000000000000       0x30 drivers/serial/built-in.o
 .text.NS16550_tstc
                0x0000000000000000       0x18 drivers/serial/built-in.o
 .data          0x0000000000000000        0x0 drivers/serial/built-in.o
 .bss           0x0000000000000000        0x0 drivers/serial/built-in.o
 .text          0x0000000000000000        0x0 drivers/spi/built-in.o
 .text.spi_set_wordlen
                0x0000000000000000       0x30 drivers/spi/built-in.o
 .text.spi_do_alloc_slave
                0x0000000000000000       0x4c drivers/spi/built-in.o
 .rodata.str1.1
                0x0000000000000000       0x19 drivers/spi/built-in.o
 .data          0x0000000000000000        0x0 drivers/spi/built-in.o
 .bss           0x0000000000000000        0x0 drivers/spi/built-in.o
 .comment       0x0000000000000000       0x20 drivers/spi/built-in.o
 .note.GNU-stack
                0x0000000000000000        0x0 drivers/spi/built-in.o
 .ARM.attributes
                0x0000000000000000       0x2d drivers/spi/built-in.o
 .debug_aranges
                0x0000000000000000       0x28 drivers/spi/built-in.o
 .debug_info    0x0000000000000000      0x25f drivers/spi/built-in.o
 .debug_abbrev  0x0000000000000000      0x139 drivers/spi/built-in.o
 .debug_line    0x0000000000000000       0xcf drivers/spi/built-in.o
 .debug_frame   0x0000000000000000       0x4c drivers/spi/built-in.o
 .debug_str     0x0000000000000000      0x312 drivers/spi/built-in.o
 .debug_loc     0x0000000000000000      0x10f drivers/spi/built-in.o
 .debug_ranges  0x0000000000000000       0x18 drivers/spi/built-in.o
 .text          0x0000000000000000        0x0 drivers/usb/common/built-in.o
 .text.usb_get_dr_mode
                0x0000000000000000       0x88 drivers/usb/common/built-in.o
 .rodata.str1.1
                0x0000000000000000       0x66 drivers/usb/common/built-in.o
 .rodata.__func__.7570
                0x0000000000000000       0x10 drivers/usb/common/built-in.o
 .rodata.usb_dr_modes
                0x0000000000000000       0x10 drivers/usb/common/built-in.o
 .data          0x0000000000000000        0x0 drivers/usb/common/built-in.o
 .bss           0x0000000000000000        0x0 drivers/usb/common/built-in.o
 .comment       0x0000000000000000       0x20 drivers/usb/common/built-in.o
 .note.GNU-stack
                0x0000000000000000        0x0 drivers/usb/common/built-in.o
 .ARM.attributes
                0x0000000000000000       0x2d drivers/usb/common/built-in.o
 .debug_aranges
                0x0000000000000000       0x20 drivers/usb/common/built-in.o
 .debug_info    0x0000000000000000      0x627 drivers/usb/common/built-in.o
 .debug_abbrev  0x0000000000000000      0x1a7 drivers/usb/common/built-in.o
 .debug_line    0x0000000000000000      0x13c drivers/usb/common/built-in.o
 .debug_frame   0x0000000000000000       0x2c drivers/usb/common/built-in.o
 .debug_str     0x0000000000000000      0x61e drivers/usb/common/built-in.o
 .debug_loc     0x0000000000000000       0x7b drivers/usb/common/built-in.o
 .debug_ranges  0x0000000000000000       0x10 drivers/usb/common/built-in.o
 .text          0x0000000000000000        0x0 drivers/usb/host/built-in.o
 .text.usb_setup_ehci_gadget
                0x0000000000000000       0x70 drivers/usb/host/built-in.o
 .text.usb_detect_change
                0x0000000000000000       0xb8 drivers/usb/host/built-in.o
 .text.rh_check_port_status
                0x0000000000000000       0x60 drivers/usb/host/built-in.o
 .rodata.default_ehci_ops
                0x0000000000000000       0x14 drivers/usb/host/built-in.o
 .data          0x0000000000000000        0x0 drivers/usb/host/built-in.o
 .bss           0x0000000000000000        0x0 drivers/usb/host/built-in.o
 .text          0x0000000000000000        0x0 fs/built-in.o
 .text.fs_uuid  0x0000000000000000       0x28 fs/built-in.o
 .text.do_fs_uuid
                0x0000000000000000       0x8c fs/built-in.o
 .text.fat_register_device
                0x0000000000000000       0x94 fs/built-in.o
 .text.file_fat_read
                0x0000000000000000       0x38 fs/built-in.o
 .text.file_getfsname
                0x0000000000000000       0x14 fs/built-in.o
 .text.file_cd  0x0000000000000000      0x1bc fs/built-in.o
 .text.file_detectfs
                0x0000000000000000       0x40 fs/built-in.o
 .text.file_ls  0x0000000000000000       0x94 fs/built-in.o
 .text.file_read
                0x0000000000000000       0xa4 fs/built-in.o
 .rodata.filesystems
                0x0000000000000000       0x18 fs/built-in.o
 .data          0x0000000000000000        0x0 fs/built-in.o
 .data.file_cwd
                0x0000000000000000      0x200 fs/built-in.o
 .data.current_filesystem
                0x0000000000000000        0x4 fs/built-in.o
 .bss           0x0000000000000000        0x0 fs/built-in.o
 .bss.ext4fs_symlinknest
                0x0000000000000000        0x4 fs/built-in.o
 .bss.g_parent_inode
                0x0000000000000000        0x4 fs/built-in.o
 .text          0x0000000000000000        0x0 lib/built-in.o
 .text.invalidate_icache_all
                0x0000000000000000        0x4 lib/built-in.o
 .text.efi_add_runtime_mmio
                0x0000000000000000       0x88 lib/built-in.o
 .text.inflateInit_
                0x0000000000000000       0x10 lib/built-in.o
 .text.crc7     0x0000000000000000       0x24 lib/built-in.o
 .text.crc8     0x0000000000000000       0x4c lib/built-in.o
 .text.lmb_dump_all
                0x0000000000000000        0x4 lib/built-in.o
 .text.lmb_is_reserved
                0x0000000000000000       0x5c lib/built-in.o
 .text.arch_lmb_reserve
                0x0000000000000000        0x4 lib/built-in.o
 .text.ldiv     0x0000000000000000       0x50 lib/built-in.o
 .text.rc4_encode
                0x0000000000000000       0xec lib/built-in.o
 .text.fdt_get_max_phandle
                0x0000000000000000       0x78 lib/built-in.o
 .text.fdt_get_path
                0x0000000000000000      0x134 lib/built-in.o
 .text.fdt_node_offset_by_prop_value
                0x0000000000000000       0x90 lib/built-in.o
 .text.fdt_stringlist_count
                0x0000000000000000       0x64 lib/built-in.o
 .text.fdt_stringlist_get
                0x0000000000000000       0xa8 lib/built-in.o
 .text.fdt_pack
                0x0000000000000000       0x5c lib/built-in.o
 .text.fdt_remove_unused_strings
                0x0000000000000000       0xb0 lib/built-in.o
 .text._fdt_sw_check_header
                0x0000000000000000       0x1c lib/built-in.o
 .text._fdt_grab_space
                0x0000000000000000       0x50 lib/built-in.o
 .text.fdt_create
                0x0000000000000000       0x64 lib/built-in.o
 .text.fdt_resize
                0x0000000000000000       0xb4 lib/built-in.o
 .text.fdt_add_reservemap_entry
                0x0000000000000000       0x90 lib/built-in.o
 .text.fdt_finish_reservemap
                0x0000000000000000       0x1c lib/built-in.o
 .text.fdt_begin_node
                0x0000000000000000       0x68 lib/built-in.o
 .text.fdt_end_node
                0x0000000000000000       0x40 lib/built-in.o
 .text.fdt_property_placeholder
                0x0000000000000000      0x10c lib/built-in.o
 .text.fdt_property
                0x0000000000000000       0x3c lib/built-in.o
 .text.fdt_finish
                0x0000000000000000      0x100 lib/built-in.o
 .text.fdt_setprop_inplace_namelen_partial
                0x0000000000000000       0x54 lib/built-in.o
 .text.fdt_setprop_inplace
                0x0000000000000000       0x74 lib/built-in.o
 .text.fdt_nop_property
                0x0000000000000000       0x40 lib/built-in.o
 .text.fdt_nop_node
                0x0000000000000000       0x50 lib/built-in.o
 .text.fdt_find_regions
                0x0000000000000000      0x3a0 lib/built-in.o
 .text.fdt_create_empty_tree
                0x0000000000000000       0x74 lib/built-in.o
 .text.fdt_add_region
                0x0000000000000000       0x98 lib/built-in.o
 .text.fdt_add_alias_regions
                0x0000000000000000      0x19c lib/built-in.o
 .text.fdt_next_region
                0x0000000000000000      0x52c lib/built-in.o
 .text.fdt_first_region
                0x0000000000000000       0x48 lib/built-in.o
 .text.fdtdec_get_uint
                0x0000000000000000       0x38 lib/built-in.o
 .text.fdtdec_get_compatible
                0x0000000000000000       0x10 lib/built-in.o
 .text.fdtdec_get_uint64
                0x0000000000000000       0x48 lib/built-in.o
 .text.fdtdec_lookup
                0x0000000000000000       0x4c lib/built-in.o
 .text.fdtdec_next_compatible
                0x0000000000000000       0x10 lib/built-in.o
 .text.fdtdec_next_compatible_subnode
                0x0000000000000000       0x68 lib/built-in.o
 .text.fdtdec_next_alias
                0x0000000000000000       0x94 lib/built-in.o
 .text.fdtdec_add_aliases_for_id
                0x0000000000000000      0x264 lib/built-in.o
 .text.fdtdec_find_aliases_for_id
                0x0000000000000000       0x44 lib/built-in.o
 .text.fdtdec_check_fdt
                0x0000000000000000       0x10 lib/built-in.o
 .text.fdtdec_lookup_phandle
                0x0000000000000000       0x34 lib/built-in.o
 .text.decode_timing_property
                0x0000000000000000       0x80 lib/built-in.o
 .text.fdtdec_get_int_array_count
                0x0000000000000000       0x54 lib/built-in.o
 .text.fdtdec_locate_array
                0x0000000000000000       0x28 lib/built-in.o
 .text.fdtdec_get_child_count
                0x0000000000000000       0x34 lib/built-in.o
 .text.fdtdec_get_byte_array
                0x0000000000000000       0x40 lib/built-in.o
 .text.fdtdec_locate_byte_array
                0x0000000000000000       0x24 lib/built-in.o
 .text.fdtdec_get_config_bool
                0x0000000000000000       0x44 lib/built-in.o
 .text.fdtdec_decode_region
                0x0000000000000000       0x54 lib/built-in.o
 .text.fdtdec_read_fmap_entry
                0x0000000000000000       0xd4 lib/built-in.o
 .text.fdtdec_get_number
                0x0000000000000000       0x3c lib/built-in.o
 .text.fdtdec_get_addr_size_fixed
                0x0000000000000000       0xb8 lib/built-in.o
 .text.fdtdec_get_addr_size_auto_parent
                0x0000000000000000       0x6c lib/built-in.o
 .text.fdtdec_get_addr_size_auto_noparent
                0x0000000000000000       0x54 lib/built-in.o
 .text.fdtdec_get_addr_size
                0x0000000000000000       0x34 lib/built-in.o
 .text.fdtdec_get_addr
                0x0000000000000000        0x8 lib/built-in.o
 .text.fdt_get_resource
                0x0000000000000000       0xe0 lib/built-in.o
 .text.fdt_get_named_resource
                0x0000000000000000       0x40 lib/built-in.o
 .text.fdtdec_decode_memory_region
                0x0000000000000000      0x130 lib/built-in.o
 .text.fdtdec_decode_display_timing
                0x0000000000000000      0x2dc lib/built-in.o
 .text.fdtdec_setup_memory_size
                0x0000000000000000       0x64 lib/built-in.o
 .text.fdtdec_setup_memory_banksize
                0x0000000000000000       0x7c lib/built-in.o
 .text.print_freq
                0x0000000000000000      0x1a8 lib/built-in.o
 .text.crc32_wd_buf
                0x0000000000000000       0x38 lib/built-in.o
 .text.div_s64_rem
                0x0000000000000000       0xf8 lib/built-in.o
 .text.div64_u64_rem
                0x0000000000000000      0x190 lib/built-in.o
 .text.div64_u64
                0x0000000000000000      0x15c lib/built-in.o
 .text.div64_s64
                0x0000000000000000       0x50 lib/built-in.o
 .text.iter_div_u64_rem
                0x0000000000000000       0x40 lib/built-in.o
 .text.copy_from_user
                0x0000000000000000       0x10 lib/built-in.o
 .text.kmalloc  0x0000000000000000       0x38 lib/built-in.o
 .text.get_mem  0x0000000000000000       0x1c lib/built-in.o
 .text.kmem_cache_alloc
                0x0000000000000000        0xc lib/built-in.o
 .text.membuff_purge
                0x0000000000000000       0x10 lib/built-in.o
 .text.membuff_putraw
                0x0000000000000000       0xc0 lib/built-in.o
 .text.membuff_putbyte
                0x0000000000000000       0x30 lib/built-in.o
 .text.membuff_getraw
                0x0000000000000000       0x98 lib/built-in.o
 .text.membuff_getbyte
                0x0000000000000000       0x34 lib/built-in.o
 .text.membuff_peekbyte
                0x0000000000000000       0x30 lib/built-in.o
 .text.membuff_get
                0x0000000000000000       0x80 lib/built-in.o
 .text.membuff_put
                0x0000000000000000       0x60 lib/built-in.o
 .text.membuff_isempty
                0x0000000000000000       0x18 lib/built-in.o
 .text.membuff_avail
                0x0000000000000000       0x54 lib/built-in.o
 .text.membuff_size
                0x0000000000000000        0xc lib/built-in.o
 .text.membuff_makecontig
                0x0000000000000000       0x80 lib/built-in.o
 .text.membuff_free
                0x0000000000000000       0x30 lib/built-in.o
 .text.membuff_readline
                0x0000000000000000       0xb8 lib/built-in.o
 .text.membuff_extend_by
                0x0000000000000000       0xc0 lib/built-in.o
 .text.membuff_init
                0x0000000000000000       0x18 lib/built-in.o
 .text.membuff_new
                0x0000000000000000       0x38 lib/built-in.o
 .text.membuff_uninit
                0x0000000000000000       0x18 lib/built-in.o
 .text.membuff_dispose
                0x0000000000000000       0x24 lib/built-in.o
 .text.strcasecmp
                0x0000000000000000        0x8 lib/built-in.o
 .text.strspn   0x0000000000000000       0x3c lib/built-in.o
 .text.strpbrk  0x0000000000000000       0x3c lib/built-in.o
 .text.strtok   0x0000000000000000       0x84 lib/built-in.o
 .text.strsep   0x0000000000000000       0x38 lib/built-in.o
 .text.strswab  0x0000000000000000       0x48 lib/built-in.o
 .text.memchr_inv
                0x0000000000000000      0x140 lib/built-in.o
 .text.table_compute_checksum
                0x0000000000000000       0x28 lib/built-in.o
 .text.get_ticks
                0x0000000000000000       0x40 lib/built-in.o
 .text.timer_init
                0x0000000000000000        0x8 lib/built-in.o
 .text.get_timer
                0x0000000000000000       0x18 lib/built-in.o
 .text.__udelay
                0x0000000000000000       0xa8 lib/built-in.o
 .text.vsnprintf
                0x0000000000000000        0x4 lib/built-in.o
 .text.scnprintf
                0x0000000000000000       0x28 lib/built-in.o
 .text.__assert_fail
                0x0000000000000000       0x14 lib/built-in.o
 .text.print_grouped_ull
                0x0000000000000000       0x88 lib/built-in.o
 .text.str2off  0x0000000000000000       0x40 lib/built-in.o
 .text.str2long
                0x0000000000000000       0x40 lib/built-in.o
 .text.strmhz   0x0000000000000000       0x64 lib/built-in.o
 .rodata.z_errmsg
                0x0000000000000000       0x28 lib/built-in.o
 .rodata.crc7_syndrome_table
                0x0000000000000000      0x100 lib/built-in.o
 .rodata.compat_names
                0x0000000000000000       0xb8 lib/built-in.o
 .rodata.names.7331
                0x0000000000000000        0x3 lib/built-in.o
 .data          0x0000000000000000        0x0 lib/built-in.o
 .data.cur      0x0000000000000000        0x4 lib/built-in.o
 .data.current  0x0000000000000000        0x4 lib/built-in.o
 .bss           0x0000000000000000        0x0 lib/built-in.o
 .bss.___strtok
                0x0000000000000000        0x4 lib/built-in.o
 .text          0x0000000000000000        0x0 net/built-in.o
 .text.add_ip_checksums
                0x0000000000000000       0x3c net/built-in.o
 .text.eth_init_state_only
                0x0000000000000000       0x38 net/built-in.o
 .text.eth_is_active
                0x0000000000000000       0x38 net/built-in.o
 .text.net_get_udp_handler
                0x0000000000000000       0x10 net/built-in.o
 .text.net_set_arp_handler
                0x0000000000000000       0x20 net/built-in.o
 .text.random_port
                0x0000000000000000       0x18 net/built-in.o
 .text.vlan_to_string
                0x0000000000000000       0x44 net/built-in.o
 .text.getenv_vlan
                0x0000000000000000       0x10 net/built-in.o
 .data          0x0000000000000000        0x0 net/built-in.o
 .data.tftp_timeout_ms
                0x0000000000000000        0x4 net/built-in.o
 .bss           0x0000000000000000        0x0 net/built-in.o
 .text          0x0000000000000000        0x0 test/dm/built-in.o
 .data          0x0000000000000000        0x0 test/dm/built-in.o
 .bss           0x0000000000000000        0x0 test/dm/built-in.o
 .text          0x0000000000000000        0x0 arch/arm/lib/eabi_compat.o
 .data          0x0000000000000000        0x0 arch/arm/lib/eabi_compat.o
 .bss           0x0000000000000000        0x0 arch/arm/lib/eabi_compat.o
 .text.raise    0x0000000000000000       0x1c arch/arm/lib/eabi_compat.o
 .text.__aeabi_unwind_cpp_pr0
                0x0000000000000000        0x4 arch/arm/lib/eabi_compat.o
 .text.__aeabi_unwind_cpp_pr1
                0x0000000000000000        0x4 arch/arm/lib/eabi_compat.o
 .text.__aeabi_memcpy
                0x0000000000000000        0x4 arch/arm/lib/eabi_compat.o
 .text.__aeabi_memset
                0x0000000000000000       0x10 arch/arm/lib/eabi_compat.o
 .rodata.str1.1
                0x0000000000000000       0x1b arch/arm/lib/eabi_compat.o
 .debug_info    0x0000000000000000      0x217 arch/arm/lib/eabi_compat.o
 .debug_abbrev  0x0000000000000000      0x133 arch/arm/lib/eabi_compat.o
 .debug_loc     0x0000000000000000      0x108 arch/arm/lib/eabi_compat.o
 .debug_aranges
                0x0000000000000000       0x38 arch/arm/lib/eabi_compat.o
 .debug_ranges  0x0000000000000000       0x28 arch/arm/lib/eabi_compat.o
 .debug_line    0x0000000000000000       0xe8 arch/arm/lib/eabi_compat.o
 .debug_str     0x0000000000000000      0x301 arch/arm/lib/eabi_compat.o
 .comment       0x0000000000000000       0x20 arch/arm/lib/eabi_compat.o
 .note.GNU-stack
                0x0000000000000000        0x0 arch/arm/lib/eabi_compat.o
 .debug_frame   0x0000000000000000       0x68 arch/arm/lib/eabi_compat.o
 .ARM.attributes
                0x0000000000000000       0x2d arch/arm/lib/eabi_compat.o
 .text          0x0000000000000000        0x0 arch/arm/lib/lib.a(ashldi3.o)
 .data          0x0000000000000000        0x0 arch/arm/lib/lib.a(ashldi3.o)
 .bss           0x0000000000000000        0x0 arch/arm/lib/lib.a(ashldi3.o)
 .text          0x0000000000000000        0x0 arch/arm/lib/lib.a(lib1funcs.o)
 .data          0x0000000000000000        0x0 arch/arm/lib/lib.a(lib1funcs.o)
 .bss           0x0000000000000000        0x0 arch/arm/lib/lib.a(lib1funcs.o)
 .text.__umodsi3
                0x0000000000000000       0xa0 arch/arm/lib/lib.a(lib1funcs.o)
 .text.__modsi3
                0x0000000000000000       0xb8 arch/arm/lib/lib.a(lib1funcs.o)
 .text          0x0000000000000000        0x0 arch/arm/lib/lib.a(lshrdi3.o)
 .data          0x0000000000000000        0x0 arch/arm/lib/lib.a(lshrdi3.o)
 .bss           0x0000000000000000        0x0 arch/arm/lib/lib.a(lshrdi3.o)
 .text          0x0000000000000000        0x0 arch/arm/lib/lib.a(div0.o)
 .data          0x0000000000000000        0x0 arch/arm/lib/lib.a(div0.o)
 .bss           0x0000000000000000        0x0 arch/arm/lib/lib.a(div0.o)

Memory Configuration

Name             Origin             Length             Attributes
*default*        0x0000000000000000 0xffffffffffffffff

Linker script and memory map

Address of section .text set to 0x4a000000

/DISCARD/
 *(.rel._secure*)
                0x0000000000000000                . = 0x0
                0x0000000000000000                . = ALIGN (0x4)

.text           0x000000004a000000    0x454b4
 *(.__image_copy_start)
 .__image_copy_start
                0x000000004a000000        0x0 arch/arm/lib/built-in.o
                0x000000004a000000                __image_copy_start
 *(.vectors)
 .vectors       0x000000004a000000      0x2e8 arch/arm/lib/built-in.o
                0x000000004a000000                _start
                0x000000004a000020                _undefined_instruction
                0x000000004a000024                _software_interrupt
                0x000000004a000028                _prefetch_abort
                0x000000004a00002c                _data_abort
                0x000000004a000030                _not_used
                0x000000004a000034                _irq
                0x000000004a000038                _fiq
                0x000000004a000040                IRQ_STACK_START_IN
 arch/arm/cpu/armv7/start.o(.text*)
 .text          0x000000004a0002e8       0xb0 arch/arm/cpu/armv7/start.o
                0x000000004a0002e8                reset
                0x000000004a0002ec                save_boot_params_ret
                0x000000004a000328                c_runtime_cpu_setup
                0x000000004a000338                save_boot_params
                0x000000004a00033c                cpu_init_cp15
                0x000000004a000390                cpu_init_crit
 *(.text*)
 .text          0x000000004a000398      0x16c arch/arm/cpu/armv7/built-in.o
                0x000000004a000398                __v7_flush_dcache_all
                0x000000004a00042c                v7_flush_dcache_all
                0x000000004a00043c                __v7_invalidate_dcache_all
                0x000000004a0004d0                v7_invalidate_dcache_all
                0x000000004a0004e0                lowlevel_init
 .text.invalidate_icache_all
                0x000000004a000504       0x18 arch/arm/cpu/armv7/built-in.o
                0x000000004a000504                invalidate_icache_all
 .text.v7_outer_cache_enable
                0x000000004a00051c        0x4 arch/arm/cpu/armv7/built-in.o
                0x000000004a00051c                v7_outer_cache_enable
 .text.v7_outer_cache_disable
                0x000000004a000520        0x4 arch/arm/cpu/armv7/built-in.o
                0x000000004a000520                v7_outer_cache_disable
 .text.v7_outer_cache_flush_all
                0x000000004a000524        0x4 arch/arm/cpu/armv7/built-in.o
                0x000000004a000524                v7_outer_cache_flush_all
 .text.flush_dcache_all
                0x000000004a000528       0x10 arch/arm/cpu/armv7/built-in.o
                0x000000004a000528                flush_dcache_all
 .text.v7_outer_cache_inval_all
                0x000000004a000538        0x4 arch/arm/cpu/armv7/built-in.o
                0x000000004a000538                v7_outer_cache_inval_all
 .text.invalidate_dcache_all
                0x000000004a00053c       0x10 arch/arm/cpu/armv7/built-in.o
                0x000000004a00053c                invalidate_dcache_all
 .text.arm_init_before_mmu
                0x000000004a00054c       0x28 arch/arm/cpu/armv7/built-in.o
                0x000000004a00054c                arm_init_before_mmu
 .text.v7_outer_cache_flush_range
                0x000000004a000574        0x4 arch/arm/cpu/armv7/built-in.o
                0x000000004a000574                v7_outer_cache_flush_range
 .text.flush_dcache_range
                0x000000004a000578       0x54 arch/arm/cpu/armv7/built-in.o
                0x000000004a000578                flush_dcache_range
 .text.v7_outer_cache_inval_range
                0x000000004a0005cc        0x4 arch/arm/cpu/armv7/built-in.o
                0x000000004a0005cc                v7_outer_cache_inval_range
 .text.invalidate_dcache_range
                0x000000004a0005d0       0x64 arch/arm/cpu/armv7/built-in.o
                0x000000004a0005d0                invalidate_dcache_range
 .text.cpu_cache_initialization
                0x000000004a000634        0x4 arch/arm/cpu/armv7/built-in.o
                0x000000004a000634                cpu_cache_initialization
 .text.cleanup_before_linux_select
                0x000000004a000638       0x4c arch/arm/cpu/armv7/built-in.o
                0x000000004a000638                cleanup_before_linux_select
 .text.cleanup_before_linux
                0x000000004a000684        0x8 arch/arm/cpu/armv7/built-in.o
                0x000000004a000684                cleanup_before_linux
 .text.get_gicd_base_address
                0x000000004a00068c       0x34 arch/arm/cpu/armv7/built-in.o
 .text.protect_secure_section
                0x000000004a0006c0        0x4 arch/arm/cpu/armv7/built-in.o
                0x000000004a0006c0                protect_secure_section
 .text.psci_board_init
                0x000000004a0006c4        0x4 arch/arm/cpu/armv7/built-in.o
                0x000000004a0006c4                psci_board_init
 .text.armv7_init_nonsec
                0x000000004a0006c8       0xd0 arch/arm/cpu/armv7/built-in.o
                0x000000004a0006c8                armv7_init_nonsec
 .text.armv7_apply_memory_carveout
                0x000000004a000798        0x8 arch/arm/cpu/armv7/built-in.o
                0x000000004a000798                armv7_apply_memory_carveout
 .text.psci_update_dt
                0x000000004a0007a0       0x20 arch/arm/cpu/armv7/built-in.o
                0x000000004a0007a0                psci_update_dt
 .text.timer_init
                0x000000004a0007c0       0x28 arch/arm/cpu/armv7/built-in.o
                0x000000004a0007c0                timer_init
 .text.get_timer_masked
                0x000000004a0007e8       0x60 arch/arm/cpu/armv7/built-in.o
                0x000000004a0007e8                get_timer_masked
 .text.get_timer
                0x000000004a000848       0x14 arch/arm/cpu/armv7/built-in.o
                0x000000004a000848                get_timer
 .text.__udelay
                0x000000004a00085c       0x54 arch/arm/cpu/armv7/built-in.o
                0x000000004a00085c                __udelay
 .text.get_ticks
                0x000000004a0008b0       0x10 arch/arm/cpu/armv7/built-in.o
                0x000000004a0008b0                get_ticks
 .text.get_tbclk
                0x000000004a0008c0        0x8 arch/arm/cpu/armv7/built-in.o
                0x000000004a0008c0                get_tbclk
 *fill*         0x000000004a0008c8       0x18 
 .text          0x000000004a0008e0      0x528 arch/arm/lib/built-in.o
                0x000000004a0008e0                _main
                0x000000004a000980                memset
                0x000000004a000a5c                memcpy
 .text.relocate_vectors
                0x000000004a000e08       0x70 arch/arm/lib/built-in.o
                0x000000004a000e08                relocate_vectors
                0x000000004a000e14                relocate_code
 .text.arch_fixup_fdt
                0x000000004a000e78       0x64 arch/arm/lib/built-in.o
                0x000000004a000e78                arch_fixup_fdt
 .text.arch_lmb_reserve
                0x000000004a000edc       0x24 arch/arm/lib/built-in.o
                0x000000004a000edc                arch_lmb_reserve
 .text.board_quiesce_devices
                0x000000004a000f00        0x4 arch/arm/lib/built-in.o
                0x000000004a000f00                board_quiesce_devices
 .text.setup_board_tags
                0x000000004a000f04        0x4 arch/arm/lib/built-in.o
                0x000000004a000f04                setup_board_tags
 .text.boot_prep_linux
                0x000000004a000f08      0x200 arch/arm/lib/built-in.o
 .text.armv7_boot_nonsec_default
                0x000000004a001108        0x8 arch/arm/lib/built-in.o
                0x000000004a001108                armv7_boot_nonsec_default
 .text.armv7_boot_nonsec
                0x000000004a001110       0x5c arch/arm/lib/built-in.o
                0x000000004a001110                armv7_boot_nonsec
 .text.boot_jump_linux
                0x000000004a00116c      0x108 arch/arm/lib/built-in.o
 .text.do_bootm_linux
                0x000000004a001274       0x64 arch/arm/lib/built-in.o
                0x000000004a001274                do_bootm_linux
 .text.boot_prep_vxworks
                0x000000004a0012d8       0x50 arch/arm/lib/built-in.o
                0x000000004a0012d8                boot_prep_vxworks
 .text.boot_jump_vxworks
                0x000000004a001328        0xc arch/arm/lib/built-in.o
                0x000000004a001328                boot_jump_vxworks
 .text.bootz_setup
                0x000000004a001334       0x7c arch/arm/lib/built-in.o
                0x000000004a001334                bootz_setup
 .text.arch_reserve_stacks
                0x000000004a0013b0       0x1c arch/arm/lib/built-in.o
                0x000000004a0013b0                arch_reserve_stacks
 .text.interrupt_init
                0x000000004a0013cc       0x1c arch/arm/lib/built-in.o
                0x000000004a0013cc                interrupt_init
 .text.enable_interrupts
                0x000000004a0013e8        0x4 arch/arm/lib/built-in.o
                0x000000004a0013e8                enable_interrupts
 .text.disable_interrupts
                0x000000004a0013ec        0x8 arch/arm/lib/built-in.o
                0x000000004a0013ec                disable_interrupts
 .text.bad_mode
                0x000000004a0013f4       0x10 arch/arm/lib/built-in.o
                0x000000004a0013f4                bad_mode
 .text.show_regs
                0x000000004a001404      0x174 arch/arm/lib/built-in.o
                0x000000004a001404                show_regs
 .text.do_undefined_instruction
                0x000000004a001578       0x24 arch/arm/lib/built-in.o
                0x000000004a001578                do_undefined_instruction
 .text.do_software_interrupt
                0x000000004a00159c       0x24 arch/arm/lib/built-in.o
                0x000000004a00159c                do_software_interrupt
 .text.do_prefetch_abort
                0x000000004a0015c0       0x24 arch/arm/lib/built-in.o
                0x000000004a0015c0                do_prefetch_abort
 .text.do_data_abort
                0x000000004a0015e4       0x24 arch/arm/lib/built-in.o
                0x000000004a0015e4                do_data_abort
 .text.do_not_used
                0x000000004a001608       0x24 arch/arm/lib/built-in.o
                0x000000004a001608                do_not_used
 .text.do_fiq   0x000000004a00162c       0x24 arch/arm/lib/built-in.o
                0x000000004a00162c                do_fiq
 .text.do_irq   0x000000004a001650       0x24 arch/arm/lib/built-in.o
                0x000000004a001650                do_irq
 .text.reset_misc
                0x000000004a001674        0x4 arch/arm/lib/built-in.o
                0x000000004a001674                reset_misc
 .text.do_reset
                0x000000004a001678       0x30 arch/arm/lib/built-in.o
                0x000000004a001678                do_reset
 .text.flush_cache
                0x000000004a0016a8        0x8 arch/arm/lib/built-in.o
                0x000000004a0016a8                flush_cache
 .text.check_cache_range
                0x000000004a0016b0       0x38 arch/arm/lib/built-in.o
                0x000000004a0016b0                check_cache_range
 .text.cp_delay
                0x000000004a0016e8       0x30 arch/arm/lib/built-in.o
 .text.cache_disable
                0x000000004a001718       0x4c arch/arm/lib/built-in.o
 .text.arm_init_domains
                0x000000004a001764        0x4 arch/arm/lib/built-in.o
                0x000000004a001764                arm_init_domains
 .text.set_section_dcache
                0x000000004a001768       0x14 arch/arm/lib/built-in.o
                0x000000004a001768                set_section_dcache
 .text.dram_bank_mmu_setup
                0x000000004a00177c       0x44 arch/arm/lib/built-in.o
                0x000000004a00177c                dram_bank_mmu_setup
 .text.icache_enable
                0x000000004a0017c0       0x1c arch/arm/lib/built-in.o
                0x000000004a0017c0                icache_enable
 .text.icache_disable
                0x000000004a0017dc        0x8 arch/arm/lib/built-in.o
                0x000000004a0017dc                icache_disable
 .text.dcache_enable
                0x000000004a0017e4       0x84 arch/arm/lib/built-in.o
                0x000000004a0017e4                dcache_enable
 .text.dcache_disable
                0x000000004a001868        0x8 arch/arm/lib/built-in.o
                0x000000004a001868                dcache_disable
 .text.dcache_status
                0x000000004a001870        0xc arch/arm/lib/built-in.o
                0x000000004a001870                dcache_status
 .text.fdt_psci
                0x000000004a00187c      0x248 arch/arm/lib/built-in.o
                0x000000004a00187c                fdt_psci
 .text.s_init   0x000000004a001ac4       0x48 arch/arm/mach-sunxi/built-in.o
                0x000000004a001ac4                s_init
 .text.reset_cpu
                0x000000004a001b0c       0x2c arch/arm/mach-sunxi/built-in.o
                0x000000004a001b0c                reset_cpu
 .text.enable_caches
                0x000000004a001b38        0x4 arch/arm/mach-sunxi/built-in.o
                0x000000004a001b38                enable_caches
 .text.clock_init_sec
                0x000000004a001b3c        0x4 arch/arm/mach-sunxi/built-in.o
                0x000000004a001b3c                clock_init_sec
 .text.clock_init
                0x000000004a001b40       0x14 arch/arm/mach-sunxi/built-in.o
                0x000000004a001b40                clock_init
 .text.print_cpuinfo
                0x000000004a001b54       0x18 arch/arm/mach-sunxi/built-in.o
                0x000000004a001b54                print_cpuinfo
 .text.sunxi_get_sid
                0x000000004a001b6c       0x30 arch/arm/mach-sunxi/built-in.o
                0x000000004a001b6c                sunxi_get_sid
 .text.sunxi_gpio_set_cfgbank
                0x000000004a001b9c       0x28 arch/arm/mach-sunxi/built-in.o
                0x000000004a001b9c                sunxi_gpio_set_cfgbank
 .text.sunxi_gpio_set_cfgpin
                0x000000004a001bc4       0x38 arch/arm/mach-sunxi/built-in.o
                0x000000004a001bc4                sunxi_gpio_set_cfgpin
 .text.sunxi_gpio_get_cfgbank
                0x000000004a001bfc       0x20 arch/arm/mach-sunxi/built-in.o
                0x000000004a001bfc                sunxi_gpio_get_cfgbank
 .text.sunxi_gpio_set_drv
                0x000000004a001c1c       0x58 arch/arm/mach-sunxi/built-in.o
                0x000000004a001c1c                sunxi_gpio_set_drv
 .text.sunxi_gpio_set_pull
                0x000000004a001c74       0x58 arch/arm/mach-sunxi/built-in.o
                0x000000004a001c74                sunxi_gpio_set_pull
 .text.usb_phy_write.isra.0
                0x000000004a001ccc       0x90 arch/arm/mach-sunxi/built-in.o
 .text.sunxi_usb_phy_init
                0x000000004a001d5c       0xa4 arch/arm/mach-sunxi/built-in.o
                0x000000004a001d5c                sunxi_usb_phy_init
 .text.sunxi_usb_phy_exit
                0x000000004a001e00       0x5c arch/arm/mach-sunxi/built-in.o
                0x000000004a001e00                sunxi_usb_phy_exit
 .text.sunxi_usb_phy_power_on
                0x000000004a001e5c       0x74 arch/arm/mach-sunxi/built-in.o
                0x000000004a001e5c                sunxi_usb_phy_power_on
 .text.sunxi_usb_phy_probe
                0x000000004a001ed0      0x134 arch/arm/mach-sunxi/built-in.o
                0x000000004a001ed0                sunxi_usb_phy_probe
 .text.clock_init_uart
                0x000000004a002004       0x24 arch/arm/mach-sunxi/built-in.o
                0x000000004a002004                clock_init_uart
 .text.clock_twi_onoff
                0x000000004a002028       0x28 arch/arm/mach-sunxi/built-in.o
                0x000000004a002028                clock_twi_onoff
 .text.clock_set_pll3
                0x000000004a002050       0x3c arch/arm/mach-sunxi/built-in.o
                0x000000004a002050                clock_set_pll3
 .text.clock_get_pll5p
                0x000000004a00208c       0x34 arch/arm/mach-sunxi/built-in.o
                0x000000004a00208c                clock_get_pll5p
 .text.clock_get_pll6
                0x000000004a0020c0       0x30 arch/arm/mach-sunxi/built-in.o
                0x000000004a0020c0                clock_get_pll6
 .text.clock_set_de_mod_clock
                0x000000004a0020f0       0x48 arch/arm/mach-sunxi/built-in.o
                0x000000004a0020f0                clock_set_de_mod_clock
 .text.pmic_bus_write
                0x000000004a002138       0x28 arch/arm/mach-sunxi/built-in.o
                0x000000004a002138                pmic_bus_write
 .text.setup_environment
                0x000000004a002160      0x14c board/sunxi/built-in.o
 .text.board_init
                0x000000004a0022ac       0x5c board/sunxi/built-in.o
                0x000000004a0022ac                board_init
 .text.dram_init
                0x000000004a002308       0x20 board/sunxi/built-in.o
                0x000000004a002308                dram_init
 .text.board_mmc_init
                0x000000004a002328       0x50 board/sunxi/built-in.o
                0x000000004a002328                board_mmc_init
 .text.i2c_init_board
                0x000000004a002378       0x2c board/sunxi/built-in.o
                0x000000004a002378                i2c_init_board
 .text.get_board_serial
                0x000000004a0023a4       0x3c board/sunxi/built-in.o
                0x000000004a0023a4                get_board_serial
 .text.misc_init_r
                0x000000004a0023e0       0xe8 board/sunxi/built-in.o
                0x000000004a0023e0                misc_init_r
 .text.ft_board_setup
                0x000000004a0024c8       0x18 board/sunxi/built-in.o
                0x000000004a0024c8                ft_board_setup
 .text.eth_init_board
                0x000000004a0024e0       0x4c board/sunxi/built-in.o
                0x000000004a0024e0                eth_init_board
 .text.scsi_init
                0x000000004a00252c      0x188 board/sunxi/built-in.o
                0x000000004a00252c                scsi_init
 .text.do_go_exec
                0x000000004a0026b4       0x10 cmd/built-in.o
                0x000000004a0026b4                do_go_exec
 .text.do_go    0x000000004a0026c4       0x6c cmd/built-in.o
 .text.do_bootm
                0x000000004a002730      0x10c cmd/built-in.o
                0x000000004a002730                do_bootm
 .text.do_bootd
                0x000000004a00283c       0x20 cmd/built-in.o
                0x000000004a00283c                do_bootd
 .text.image_info
                0x000000004a00285c       0xcc cmd/built-in.o
 .text.do_iminfo
                0x000000004a002928       0x5c cmd/built-in.o
 .text.bootm_maybe_autostart
                0x000000004a002984       0x78 cmd/built-in.o
                0x000000004a002984                bootm_maybe_autostart
 .text.do_help  0x000000004a0029fc       0x44 cmd/built-in.o
 .text.do_version
                0x000000004a002a40       0x38 cmd/built-in.o
 .text.source   0x000000004a002a78       0xd8 cmd/built-in.o
                0x000000004a002a78                source
 .text.do_source
                0x000000004a002b50       0x44 cmd/built-in.o
 .text.print_num
                0x000000004a002b94       0x14 cmd/built-in.o
 .text.do_bdinfo
                0x000000004a002ba8       0xf0 cmd/built-in.o
 .text.bootefi_open_dp
                0x000000004a002c98       0x14 cmd/built-in.o
 .text.do_bootefi_exec
                0x000000004a002cac      0x29c cmd/built-in.o
 .text.do_bootefi
                0x000000004a002f48       0x8c cmd/built-in.o
 .text.efi_set_bootdev
                0x000000004a002fd4      0x14c cmd/built-in.o
                0x000000004a002fd4                efi_set_bootdev
 .text.do_bootz
                0x000000004a003120       0xf8 cmd/built-in.o
                0x000000004a003120                do_bootz
 .text.do_coninfo
                0x000000004a003218       0xb0 cmd/built-in.o
 .text.do_echo  0x000000004a0032c8       0xb0 cmd/built-in.o
 .text.load_elf_image_shdr
                0x000000004a003378       0x8c cmd/built-in.o
 .text.valid_elf_image
                0x000000004a003404       0x4c cmd/built-in.o
                0x000000004a003404                valid_elf_image
 .text.do_bootelf
                0x000000004a003450      0x184 cmd/built-in.o
                0x000000004a003450                do_bootelf
 .text.do_bootvx
                0x000000004a0035d4      0x330 cmd/built-in.o
                0x000000004a0035d4                do_bootvx
 .text.do_exit  0x000000004a003904       0x3c cmd/built-in.o
 .text.do_ext4_size
                0x000000004a003940       0x18 cmd/built-in.o
                0x000000004a003940                do_ext4_size
 .text.do_ext4_load
                0x000000004a003958       0x18 cmd/built-in.o
                0x000000004a003958                do_ext4_load
 .text.do_ext4_ls
                0x000000004a003970       0x18 cmd/built-in.o
                0x000000004a003970                do_ext4_ls
 .text.do_ext2load
                0x000000004a003988       0x18 cmd/built-in.o
                0x000000004a003988                do_ext2load
 .text.do_ext2ls
                0x000000004a0039a0       0x18 cmd/built-in.o
 .text.do_fat_size
                0x000000004a0039b8       0x18 cmd/built-in.o
                0x000000004a0039b8                do_fat_size
 .text.do_fat_fsload
                0x000000004a0039d0       0x18 cmd/built-in.o
                0x000000004a0039d0                do_fat_fsload
 .text.do_fat_ls
                0x000000004a0039e8       0x18 cmd/built-in.o
 .text.do_fat_fsinfo
                0x000000004a003a00       0x90 cmd/built-in.o
 .text.do_fat_fswrite
                0x000000004a003a90      0x128 cmd/built-in.o
 .text.fdt_valid
                0x000000004a003bb8       0xbc cmd/built-in.o
 .text.is_printable_string
                0x000000004a003c74       0x9c cmd/built-in.o
 .text.print_data
                0x000000004a003d10      0x174 cmd/built-in.o
 .text.set_working_fdt_addr
                0x000000004a003e84       0x1c cmd/built-in.o
                0x000000004a003e84                set_working_fdt_addr
 .text.do_fdt   0x000000004a003ea0      0xf1c cmd/built-in.o
 .text.do_size_wrapper
                0x000000004a004dbc       0x18 cmd/built-in.o
 .text.do_load_wrapper
                0x000000004a004dd4       0x64 cmd/built-in.o
 .text.do_save_wrapper
                0x000000004a004e38       0x18 cmd/built-in.o
 .text.do_ls_wrapper
                0x000000004a004e50       0x18 cmd/built-in.o
 .text.do_fstype_wrapper
                0x000000004a004e68        0x4 cmd/built-in.o
 .text.gpio_get_description
                0x000000004a004e6c       0xc8 cmd/built-in.o
 .text.do_gpio  0x000000004a004f34      0x36c cmd/built-in.o
 .text.do_edid  0x000000004a0052a0       0x9c cmd/built-in.o
                0x000000004a0052a0                do_edid
 .text.do_i2c   0x000000004a00533c       0x68 cmd/built-in.o
 .text.do_i2c_bus_speed
                0x000000004a0053a4       0x78 cmd/built-in.o
 .text.do_i2c_reset
                0x000000004a00541c       0x2c cmd/built-in.o
 .text.do_i2c_probe
                0x000000004a005448       0x9c cmd/built-in.o
 .text.do_i2c_bus_num
                0x000000004a0054e4       0xb8 cmd/built-in.o
 .text.do_i2c_show_bus
                0x000000004a00559c       0xd0 cmd/built-in.o
 .text.get_alen.constprop.5
                0x000000004a00566c       0x3c cmd/built-in.o
 .text.do_i2c_crc
                0x000000004a0056a8      0x120 cmd/built-in.o
 .text.mod_i2c_mem.isra.3
                0x000000004a0057c8      0x1f0 cmd/built-in.o
 .text.do_i2c_nm
                0x000000004a0059b8        0x8 cmd/built-in.o
 .text.do_i2c_mm
                0x000000004a0059c0        0x8 cmd/built-in.o
 .text.do_i2c_md
                0x000000004a0059c8      0x1e4 cmd/built-in.o
 .text.do_i2c_mw
                0x000000004a005bac       0xfc cmd/built-in.o
 .text.do_i2c_write
                0x000000004a005ca8      0x14c cmd/built-in.o
 .text.do_i2c_read
                0x000000004a005df4       0xbc cmd/built-in.o
 .text.do_i2c_loop
                0x000000004a005eb0       0xe4 cmd/built-in.o
 .text.evalexp  0x000000004a005f94       0x7c cmd/built-in.o
 .text.evalstr  0x000000004a006010       0x6c cmd/built-in.o
 .text.binary_test
                0x000000004a00607c      0x1c0 cmd/built-in.o
 .text.do_itest
                0x000000004a00623c       0x88 cmd/built-in.o
 .text.bin_data_init
                0x000000004a0062c4       0x2c cmd/built-in.o
 .text.k_data_save
                0x000000004a0062f0       0x4c cmd/built-in.o
 .text.k_data_restore
                0x000000004a00633c       0x4c cmd/built-in.o
 .text.getcxmodem
                0x000000004a006388       0x20 cmd/built-in.o
 .text.load_serial_ymodem
                0x000000004a0063a8       0xd0 cmd/built-in.o
 .text.bin_data_char
                0x000000004a006478       0x2c cmd/built-in.o
 .text.chk1.constprop.1
                0x000000004a0064a4       0x2c cmd/built-in.o
 .text.s1_sendpacket.constprop.2
                0x000000004a0064d0       0x50 cmd/built-in.o
 .text.load_serial
                0x000000004a006520      0x1f0 cmd/built-in.o
 .text.do_load_serial
                0x000000004a006710       0xdc cmd/built-in.o
 .text.do_load_serial_bin
                0x000000004a0067ec      0x7a4 cmd/built-in.o
 .text.do_mem_mw
                0x000000004a006f90       0xc0 cmd/built-in.o
 .text.do_mem_loop
                0x000000004a007050       0xec cmd/built-in.o
 .text.do_mem_md
                0x000000004a00713c       0xe4 cmd/built-in.o
 .text.do_mem_cmp
                0x000000004a007220      0x168 cmd/built-in.o
 .text.do_mem_base
                0x000000004a007388       0x40 cmd/built-in.o
 .text.do_mem_cp
                0x000000004a0073c8       0xac cmd/built-in.o
 .text.do_mem_crc
                0x000000004a007474       0x48 cmd/built-in.o
 .text.mod_mem.isra.0
                0x000000004a0074bc      0x16c cmd/built-in.o
 .text.do_mem_mm
                0x000000004a007628        0x8 cmd/built-in.o
 .text.do_mem_nm
                0x000000004a007630        0x8 cmd/built-in.o
 .text.extract_range
                0x000000004a007638       0xe4 cmd/built-in.o
 .text.do_mii   0x000000004a00771c      0x8f0 cmd/built-in.o
 .text.do_mdio  0x000000004a00800c      0x4ec cmd/built-in.o
 .text.do_sleep
                0x000000004a0084f8       0xcc cmd/built-in.o
 .text.do_mmcops
                0x000000004a0085c4       0xb8 cmd/built-in.o
 .text.init_mmc_device
                0x000000004a00867c       0x54 cmd/built-in.o
 .text.do_mmc_rescan
                0x000000004a0086d0       0x24 cmd/built-in.o
 .text.do_mmc_hwpartition
                0x000000004a0086f4      0x510 cmd/built-in.o
 .text.do_mmc_list
                0x000000004a008c04       0x14 cmd/built-in.o
 .text.do_mmc_dev
                0x000000004a008c18      0x140 cmd/built-in.o
 .text.do_mmc_part
                0x000000004a008d58       0x60 cmd/built-in.o
 .text.do_mmc_erase
                0x000000004a008db8       0xf8 cmd/built-in.o
 .text.do_mmc_write
                0x000000004a008eb0      0x110 cmd/built-in.o
 .text.do_mmc_read
                0x000000004a008fc0       0xf4 cmd/built-in.o
 .text.do_mmcinfo
                0x000000004a0090b4      0x370 cmd/built-in.o
 .text.do_mmc_setdsr
                0x000000004a009424       0xb0 cmd/built-in.o
 .text.netboot_common
                0x000000004a0094d4      0x284 cmd/built-in.o
 .text.do_bootp
                0x000000004a009758        0xc cmd/built-in.o
 .text.do_dhcp  0x000000004a009764        0xc cmd/built-in.o
 .text.do_nfs   0x000000004a009770        0xc cmd/built-in.o
 .text.do_tftpb
                0x000000004a00977c       0x40 cmd/built-in.o
                0x000000004a00977c                do_tftpb
 .text.do_ping  0x000000004a0097bc       0x78 cmd/built-in.o
 .text.do_part_list
                0x000000004a009834      0x17c cmd/built-in.o
 .text.do_part_start
                0x000000004a0099b0       0xc4 cmd/built-in.o
 .text.do_part_size
                0x000000004a009a74       0xc4 cmd/built-in.o
 .text.do_part  0x000000004a009b38      0x118 cmd/built-in.o
 .text.eol_or_eof
                0x000000004a009c50       0x20 cmd/built-in.o
 .text.do_pxe   0x000000004a009c70       0x7c cmd/built-in.o
 .text.label_print
                0x000000004a009cec       0x1c cmd/built-in.o
 .text.do_get_tftp
                0x000000004a009d08       0x44 cmd/built-in.o
 .text.from_env
                0x000000004a009d4c       0x2c cmd/built-in.o
 .text.get_string
                0x000000004a009d78       0xd0 cmd/built-in.o
 .text.label_destroy
                0x000000004a009e48       0x74 cmd/built-in.o
 .text.destroy_pxe_menu
                0x000000004a009ebc       0x5c cmd/built-in.o
 .text.get_token
                0x000000004a009f18      0x120 cmd/built-in.o
 .text.parse_sliteral
                0x000000004a00a038       0x54 cmd/built-in.o
 .text.parse_integer
                0x000000004a00a08c       0x70 cmd/built-in.o
 .text.do_get_any
                0x000000004a00a0fc       0x44 cmd/built-in.o
 .text.do_get_fat
                0x000000004a00a140       0x3c cmd/built-in.o
 .text.do_get_ext2
                0x000000004a00a17c       0x3c cmd/built-in.o
 .text.format_mac_pxe.constprop.6
                0x000000004a00a1b8       0x74 cmd/built-in.o
 .text.get_relfile
                0x000000004a00a22c      0x138 cmd/built-in.o
 .text.get_pxe_file
                0x000000004a00a364       0x58 cmd/built-in.o
 .text.handle_include
                0x000000004a00a3bc       0xa0 cmd/built-in.o
 .text.parse_pxefile_top
                0x000000004a00a45c      0x468 cmd/built-in.o
 .text.parse_pxefile
                0x000000004a00a8c4       0x6c cmd/built-in.o
 .text.get_pxelinux_path
                0x000000004a00a930       0x7c cmd/built-in.o
 .text.do_pxe_get
                0x000000004a00a9ac      0x164 cmd/built-in.o
 .text.get_relfile_envaddr
                0x000000004a00ab10       0x50 cmd/built-in.o
 .text.label_boot
                0x000000004a00ab60      0x5b4 cmd/built-in.o
 .text.handle_pxe_menu
                0x000000004a00b114      0x160 cmd/built-in.o
 .text.do_pxe_boot
                0x000000004a00b274       0xdc cmd/built-in.o
 .text.do_sysboot
                0x000000004a00b350      0x1e8 cmd/built-in.o
 .text.do_scsi  0x000000004a00b538      0x358 cmd/built-in.o
 .text.do_scsiboot
                0x000000004a00b890        0xc cmd/built-in.o
 .text.common_diskboot
                0x000000004a00b89c      0x248 cmd/built-in.o
                0x000000004a00b89c                common_diskboot
 .text.substitute
                0x000000004a00bae4       0xf0 cmd/built-in.o
 .text.get_arg  0x000000004a00bbd4       0x58 cmd/built-in.o
 .text.regex_sub
                0x000000004a00bc2c      0x450 cmd/built-in.o
 .text.do_setexpr
                0x000000004a00c07c      0x1a0 cmd/built-in.o
 .text.do_false
                0x000000004a00c21c        0x8 cmd/built-in.o
 .text.do_true  0x000000004a00c224        0x8 cmd/built-in.o
 .text.do_test  0x000000004a00c22c      0x338 cmd/built-in.o
 .text.usb_get_class_desc
                0x000000004a00c564       0xbc cmd/built-in.o
 .text.usb_display_class_sub
                0x000000004a00c620      0x170 cmd/built-in.o
 .text.usb_show_tree_graph
                0x000000004a00c790      0x1dc cmd/built-in.o
 .text.usb_show_subtree
                0x000000004a00c96c       0x30 cmd/built-in.o
 .text.usb_for_each_root_dev
                0x000000004a00c99c       0x68 cmd/built-in.o
 .text.usb_display_string
                0x000000004a00ca04       0x44 cmd/built-in.o
 .text.usb_display_config
                0x000000004a00ca48      0x20c cmd/built-in.o
 .text.usb_find_device
                0x000000004a00cc54       0xb4 cmd/built-in.o
 .text.do_usbboot
                0x000000004a00cd08        0xc cmd/built-in.o
 .text.usb_display_desc.part.1
                0x000000004a00cd14      0x12c cmd/built-in.o
 .text.do_usb_start
                0x000000004a00ce40       0x30 cmd/built-in.o
 .text.usb_show_info
                0x000000004a00ce70       0x60 cmd/built-in.o
 .text.usb_show_tree
                0x000000004a00ced0        0xc cmd/built-in.o
                0x000000004a00ced0                usb_show_tree
 .text.do_usb   0x000000004a00cedc      0x754 cmd/built-in.o
 .text.do_imgextract
                0x000000004a00d630      0x290 cmd/built-in.o
 .text.do_env_delete
                0x000000004a00d8c0       0x9c cmd/built-in.o
 .text.do_env_exists
                0x000000004a00d95c       0x64 cmd/built-in.o
 .text.do_env_save
                0x000000004a00d9c0       0x2c cmd/built-in.o
 .text.do_env   0x000000004a00d9ec       0x68 cmd/built-in.o
 .text.env_print
                0x000000004a00da54       0xc0 cmd/built-in.o
 .text.do_env_print
                0x000000004a00db14       0xc8 cmd/built-in.o
 .text.do_env_import
                0x000000004a00dbdc      0x284 cmd/built-in.o
 .text.do_env_default
                0x000000004a00de60       0xa8 cmd/built-in.o
 .text._do_env_set.isra.0
                0x000000004a00df08      0x1bc cmd/built-in.o
 .text.do_env_set
                0x000000004a00e0c4       0x20 cmd/built-in.o
 .text.get_env_id
                0x000000004a00e0e4       0x10 cmd/built-in.o
                0x000000004a00e0e4                get_env_id
 .text.setenv   0x000000004a00e0f4       0x60 cmd/built-in.o
                0x000000004a00e0f4                setenv
 .text.setenv_ulong
                0x000000004a00e154       0x20 cmd/built-in.o
                0x000000004a00e154                setenv_ulong
 .text.setenv_hex
                0x000000004a00e174       0x34 cmd/built-in.o
                0x000000004a00e174                setenv_hex
 .text.do_env_export
                0x000000004a00e1a8      0x25c cmd/built-in.o
 .text.envmatch
                0x000000004a00e404       0x6c cmd/built-in.o
                0x000000004a00e404                envmatch
 .text.getenv_f
                0x000000004a00e470       0xc8 cmd/built-in.o
                0x000000004a00e470                getenv_f
 .text.getenv   0x000000004a00e538       0x78 cmd/built-in.o
                0x000000004a00e538                getenv
 .text.getenv_hex
                0x000000004a00e5b0       0x3c cmd/built-in.o
                0x000000004a00e5b0                getenv_hex
 .text.getenv_ulong
                0x000000004a00e5ec       0x30 cmd/built-in.o
                0x000000004a00e5ec                getenv_ulong
 .text.do_env_edit.part.2
                0x000000004a00e61c       0xac cmd/built-in.o
 .text.do_env_edit
                0x000000004a00e6c8       0x2c cmd/built-in.o
 .text.board_init_f_alloc_reserve
                0x000000004a00e6f4        0xc common/built-in.o
                0x000000004a00e6f4                board_init_f_alloc_reserve
 .text.board_init_f_init_reserve
                0x000000004a00e700       0x20 common/built-in.o
                0x000000004a00e700                board_init_f_init_reserve
 .text.show_boot_progress
                0x000000004a00e720        0x8 common/built-in.o
                0x000000004a00e720                show_boot_progress
 .text.main_loop
                0x000000004a00e728       0x6c common/built-in.o
                0x000000004a00e728                main_loop
 .text.mdelay   0x000000004a00e794       0x24 common/built-in.o
 .text.dummy    0x000000004a00e7b8        0x4 common/built-in.o
 .text.get_version
                0x000000004a00e7bc        0x8 common/built-in.o
                0x000000004a00e7bc                get_version
 .text.jumptable_init
                0x000000004a00e7c4      0x1f0 common/built-in.o
                0x000000004a00e7c4                jumptable_init
 .text.hash_command
                0x000000004a00e9b4       0xb4 common/built-in.o
                0x000000004a00e9b4                hash_command
 .text.b_reset  0x000000004a00ea68       0x1c common/built-in.o
 .text.static_get
                0x000000004a00ea84       0x1c common/built-in.o
 .text.file_peek
                0x000000004a00eaa0        0xc common/built-in.o
 .text.mapset   0x000000004a00eaac       0x20 common/built-in.o
 .text.syntax_err
                0x000000004a00eacc        0xc common/built-in.o
 .text.free_pipe_list
                0x000000004a00ead8       0xf4 common/built-in.o
 .text.xmalloc  0x000000004a00ebcc       0x20 common/built-in.o
 .text.new_pipe
                0x000000004a00ebec       0x28 common/built-in.o
 .text.xrealloc
                0x000000004a00ec14       0x20 common/built-in.o
 .text.done_command
                0x000000004a00ec34       0x88 common/built-in.o
 .text.done_pipe
                0x000000004a00ecbc       0x48 common/built-in.o
 .text.done_word
                0x000000004a00ed04      0x2e4 common/built-in.o
 .text.do_showvar
                0x000000004a00efe8       0xf4 common/built-in.o
 .text.is_assignment
                0x000000004a00f0dc       0x5c common/built-in.o
 .text.file_get
                0x000000004a00f138      0x1f0 common/built-in.o
 .text.b_addchr
                0x000000004a00f328       0x80 common/built-in.o
 .text.b_addqchr
                0x000000004a00f3a8       0x50 common/built-in.o
 .text.static_peek
                0x000000004a00f3f8        0xc common/built-in.o
 .text.get_local_var
                0x000000004a00f404       0xa0 common/built-in.o
                0x000000004a00f404                get_local_var
 .text.set_local_var
                0x000000004a00f4a4      0x1bc common/built-in.o
                0x000000004a00f4a4                set_local_var
 .text.insert_var_value_sub
                0x000000004a00f660      0x2c0 common/built-in.o
 .text.parse_string_outer
                0x000000004a00f920       0xe4 common/built-in.o
                0x000000004a00f920                parse_string_outer
 .text.run_list_real
                0x000000004a00fa04      0x7b8 common/built-in.o
 .text.parse_stream_outer
                0x000000004a0101bc      0x6d0 common/built-in.o
 .text.parse_file_outer
                0x000000004a01088c       0x44 common/built-in.o
                0x000000004a01088c                parse_file_outer
 .text.u_boot_hush_start
                0x000000004a0108d0       0x54 common/built-in.o
                0x000000004a0108d0                u_boot_hush_start
 .text.bootdelay_process
                0x000000004a010924       0xbc common/built-in.o
                0x000000004a010924                bootdelay_process
 .text.autoboot_command
                0x000000004a0109e0       0xf8 common/built-in.o
                0x000000004a0109e0                autoboot_command
 .text.setup_mon_len
                0x000000004a010ad8       0x20 common/built-in.o
 .text.reserve_round_4k
                0x000000004a010af8       0x18 common/built-in.o
 .text.reserve_mmu
                0x000000004a010b10       0x38 common/built-in.o
 .text.reserve_uboot
                0x000000004a010b48       0x30 common/built-in.o
 .text.reserve_malloc
                0x000000004a010b78       0x18 common/built-in.o
 .text.setup_machine
                0x000000004a010b90       0x18 common/built-in.o
 .text.reserve_global_data
                0x000000004a010ba8       0x1c common/built-in.o
 .text.reserve_fdt
                0x000000004a010bc4       0x4c common/built-in.o
 .text.initf_console_record
                0x000000004a010c10        0x8 common/built-in.o
 .text.arch_cpu_init_dm
                0x000000004a010c18        0x8 common/built-in.o
                0x000000004a010c18                arch_cpu_init_dm
 .text.dram_init_banksize
                0x000000004a010c20       0x24 common/built-in.o
                0x000000004a010c20                dram_init_banksize
 .text.announce_dram_init
                0x000000004a010c44       0x18 common/built-in.o
 .text.init_func_i2c
                0x000000004a010c5c       0x28 common/built-in.o
 .text.init_baud_rate
                0x000000004a010c84       0x2c common/built-in.o
 .text.mark_bootstage
                0x000000004a010cb0       0x14 common/built-in.o
 .text.initf_dm
                0x000000004a010cc4        0x8 common/built-in.o
 .text.setup_reloc
                0x000000004a010ccc       0x3c common/built-in.o
 .text.reloc_fdt
                0x000000004a010d08       0x44 common/built-in.o
 .text.reserve_board
                0x000000004a010d4c       0x40 common/built-in.o
 .text.reserve_arch
                0x000000004a010d8c        0x8 common/built-in.o
                0x000000004a010d8c                reserve_arch
 .text.display_text_info
                0x000000004a010d94        0x8 common/built-in.o
 .text.arch_cpu_init
                0x000000004a010d9c        0x8 common/built-in.o
                0x000000004a010d9c                arch_cpu_init
 .text.mach_cpu_init
                0x000000004a010da4        0x8 common/built-in.o
                0x000000004a010da4                mach_cpu_init
 .text.reserve_video
                0x000000004a010dac        0x8 common/built-in.o
 .text.reserve_trace
                0x000000004a010db4        0x8 common/built-in.o
 .text.display_new_sp
                0x000000004a010dbc        0x8 common/built-in.o
 .text.coloured_LED_init
                0x000000004a010dc4        0x4 common/built-in.o
                0x000000004a010dc4                coloured_LED_init
 .text.red_led_on
                0x000000004a010dc8        0x4 common/built-in.o
                0x000000004a010dc8                red_led_on
 .text.board_add_ram_info
                0x000000004a010dcc        0x4 common/built-in.o
                0x000000004a010dcc                board_add_ram_info
 .text.show_dram_config
                0x000000004a010dd0       0x38 common/built-in.o
 .text.setup_dest_addr
                0x000000004a010e08       0x3c common/built-in.o
 .text.reserve_stacks
                0x000000004a010e44       0x1c common/built-in.o
 .text.board_init_f
                0x000000004a010e60       0x28 common/built-in.o
                0x000000004a010e60                board_init_f
 .text.bootstage_relocate
                0x000000004a010e88        0x8 common/built-in.o
 .text.initr_reloc
                0x000000004a010e90       0x18 common/built-in.o
 .text.power_init_board
                0x000000004a010ea8        0x8 common/built-in.o
                0x000000004a010ea8                power_init_board
 .text.initr_announce
                0x000000004a010eb0        0x8 common/built-in.o
 .text.run_main_loop
                0x000000004a010eb8        0xc common/built-in.o
 .text.initr_net
                0x000000004a010ec4       0x1c common/built-in.o
 .text.initr_scsi
                0x000000004a010ee0       0x1c common/built-in.o
 .text.initr_ethaddr
                0x000000004a010efc       0x20 common/built-in.o
 .text.initr_enable_interrupts
                0x000000004a010f1c       0x10 common/built-in.o
 .text.initr_jumptable
                0x000000004a010f2c       0x10 common/built-in.o
 .text.initr_env
                0x000000004a010f3c       0x64 common/built-in.o
 .text.initr_mmc
                0x000000004a010fa0       0x20 common/built-in.o
 .text.initr_serial
                0x000000004a010fc0       0x10 common/built-in.o
 .text.initr_bootstage
                0x000000004a010fd0       0x14 common/built-in.o
 .text.initr_dm
                0x000000004a010fe4       0x14 common/built-in.o
 .text.initr_malloc
                0x000000004a010ff8       0x24 common/built-in.o
 .text.initr_reloc_global_data
                0x000000004a01101c       0x38 common/built-in.o
 .text.initr_caches
                0x000000004a011054       0x10 common/built-in.o
 .text.initr_console_record
                0x000000004a011064        0x8 common/built-in.o
 .text.initr_trace
                0x000000004a01106c        0x8 common/built-in.o
 .text.initr_barrier
                0x000000004a011074        0x8 common/built-in.o
 .text.cpu_secondary_init_r
                0x000000004a01107c        0x4 common/built-in.o
                0x000000004a01107c                cpu_secondary_init_r
 .text.initr_secondary_cpu
                0x000000004a011080       0x10 common/built-in.o
 .text.board_init_r
                0x000000004a011090       0x14 common/built-in.o
                0x000000004a011090                board_init_r
 .text.checkboard
                0x000000004a0110a4        0x8 common/built-in.o
                0x000000004a0110a4                checkboard
 .text.show_board_info
                0x000000004a0110ac       0x38 common/built-in.o
                0x000000004a0110ac                show_board_info
 .text.bootm_find_images
                0x000000004a0110e4       0xa8 common/built-in.o
                0x000000004a0110e4                bootm_find_images
 .text.bootm_decomp_image
                0x000000004a01118c      0x14c common/built-in.o
                0x000000004a01118c                bootm_decomp_image
 .text.bootm_disable_interrupts
                0x000000004a0112d8       0x18 common/built-in.o
                0x000000004a0112d8                bootm_disable_interrupts
 .text.do_bootm_states
                0x000000004a0112f0      0x73c common/built-in.o
                0x000000004a0112f0                do_bootm_states
 .text.copy_args
                0x000000004a011a2c       0x50 common/built-in.o
 .text.do_bootm_rtems
                0x000000004a011a7c       0x40 common/built-in.o
 .text.do_bootm_plan9
                0x000000004a011abc       0xa4 common/built-in.o
 .text.do_bootm_standalone
                0x000000004a011b60       0x64 common/built-in.o
 .text.do_bootm_qnxelf
                0x000000004a011bc4       0x78 common/built-in.o
 .text.do_bootm_netbsd
                0x000000004a011c3c       0xf8 common/built-in.o
 .text.do_bootvx_fdt
                0x000000004a011d34      0x118 common/built-in.o
                0x000000004a011d34                do_bootvx_fdt
 .text.do_bootm_vxworks
                0x000000004a011e4c       0x24 common/built-in.o
 .text.arch_preboot_os
                0x000000004a011e70        0x4 common/built-in.o
                0x000000004a011e70                arch_preboot_os
 .text.boot_selected_os
                0x000000004a011e74       0x58 common/built-in.o
                0x000000004a011e74                boot_selected_os
 .text.bootm_os_get_boot_func
                0x000000004a011ecc       0x10 common/built-in.o
                0x000000004a011ecc                bootm_os_get_boot_func
 .text.regex_callback
                0x000000004a011edc      0x134 common/built-in.o
 .text.env_attr_walk
                0x000000004a012010      0x128 common/built-in.o
                0x000000004a012010                env_attr_walk
 .text.env_attr_lookup
                0x000000004a012138       0x84 common/built-in.o
                0x000000004a012138                env_attr_lookup
 .text.clear_callback
                0x000000004a0121bc       0x10 common/built-in.o
 .text.find_env_callback
                0x000000004a0121cc       0x64 common/built-in.o
 .text.on_callbacks
                0x000000004a012230       0x50 common/built-in.o
 .text.set_callback
                0x000000004a012280       0x98 common/built-in.o
 .text.env_callback_init
                0x000000004a012318       0xc4 common/built-in.o
                0x000000004a012318                env_callback_init
 .text.skip_num
                0x000000004a0123dc       0x78 common/built-in.o
 .text.clear_flags
                0x000000004a012454       0x10 common/built-in.o
 .text.on_flags
                0x000000004a012464       0x50 common/built-in.o
 .text.env_flags_parse_vartype
                0x000000004a0124b4       0x50 common/built-in.o
                0x000000004a0124b4                env_flags_parse_vartype
 .text.env_flags_parse_varaccess
                0x000000004a012504       0x58 common/built-in.o
                0x000000004a012504                env_flags_parse_varaccess
 .text.set_flags
                0x000000004a01255c       0xb0 common/built-in.o
 .text.eth_validate_ethaddr_str
                0x000000004a01260c       0x94 common/built-in.o
                0x000000004a01260c                eth_validate_ethaddr_str
 .text.env_flags_init
                0x000000004a0126a0       0xd8 common/built-in.o
                0x000000004a0126a0                env_flags_init
 .text.env_flags_validate
                0x000000004a012778      0x2b8 common/built-in.o
                0x000000004a012778                env_flags_validate
 .text.mmc_get_env_addr
                0x000000004a012a30       0x10 common/built-in.o
                0x000000004a012a30                mmc_get_env_addr
 .text.mmc_get_env_dev
                0x000000004a012a40        0x8 common/built-in.o
                0x000000004a012a40                mmc_get_env_dev
 .text.env_init
                0x000000004a012a48       0x1c common/built-in.o
                0x000000004a012a48                env_init
 .text.saveenv  0x000000004a012a64      0x134 common/built-in.o
                0x000000004a012a64                saveenv
 .text.env_relocate_spec
                0x000000004a012b98       0xf8 common/built-in.o
                0x000000004a012b98                env_relocate_spec
 .text.of_bus_default_map
                0x000000004a012c90       0xdc common/built-in.o
 .text.of_bus_default_count_cells
                0x000000004a012d6c       0x58 common/built-in.o
                0x000000004a012d6c                of_bus_default_count_cells
 .text.of_bus_default_translate
                0x000000004a012dc4       0xa0 common/built-in.o
 .text.fdt_find_and_setprop
                0x000000004a012e64       0x70 common/built-in.o
                0x000000004a012e64                fdt_find_and_setprop
 .text.fdt_find_or_add_subnode
                0x000000004a012ed4       0x60 common/built-in.o
                0x000000004a012ed4                fdt_find_or_add_subnode
 .text.fdt_root
                0x000000004a012f34       0x90 common/built-in.o
                0x000000004a012f34                fdt_root
 .text.fdt_initrd
                0x000000004a012fc4      0x1cc common/built-in.o
                0x000000004a012fc4                fdt_initrd
 .text.fdt_chosen
                0x000000004a013190       0xdc common/built-in.o
                0x000000004a013190                fdt_chosen
 .text.do_fixup_by_path
                0x000000004a01326c       0x54 common/built-in.o
                0x000000004a01326c                do_fixup_by_path
 .text.fdt_fixup_memory_banks
                0x000000004a0132c0      0x1b0 common/built-in.o
                0x000000004a0132c0                fdt_fixup_memory_banks
 .text.fdt_fixup_memory
                0x000000004a013470       0x20 common/built-in.o
                0x000000004a013470                fdt_fixup_memory
 .text.fdt_fixup_ethernet
                0x000000004a013490      0x1a4 common/built-in.o
                0x000000004a013490                fdt_fixup_ethernet
 .text.fdt_shrink_to_minimum
                0x000000004a013634       0xd4 common/built-in.o
                0x000000004a013634                fdt_shrink_to_minimum
 .text.fdt_translate_address
                0x000000004a013708      0x29c common/built-in.o
                0x000000004a013708                fdt_translate_address
 .text.fdt_setup_simplefb_node
                0x000000004a0139a4      0x200 common/built-in.o
                0x000000004a0139a4                fdt_setup_simplefb_node
 .text.miiphy_get_dev_by_name
                0x000000004a013ba4       0x60 common/built-in.o
                0x000000004a013ba4                miiphy_get_dev_by_name
 .text.miiphy_init
                0x000000004a013c04       0x24 common/built-in.o
                0x000000004a013c04                miiphy_init
 .text.mdio_alloc
                0x000000004a013c28       0x30 common/built-in.o
                0x000000004a013c28                mdio_alloc
 .text.mdio_free
                0x000000004a013c58        0x4 common/built-in.o
                0x000000004a013c58                mdio_free
 .text.mdio_register
                0x000000004a013c5c       0x94 common/built-in.o
                0x000000004a013c5c                mdio_register
 .text.mdio_unregister
                0x000000004a013cf0       0x3c common/built-in.o
                0x000000004a013cf0                mdio_unregister
 .text.mdio_list_devices
                0x000000004a013d2c       0x9c common/built-in.o
                0x000000004a013d2c                mdio_list_devices
 .text.miiphy_set_current_dev
                0x000000004a013dc8       0x40 common/built-in.o
                0x000000004a013dc8                miiphy_set_current_dev
 .text.miiphy_get_active_dev
                0x000000004a013e08       0x54 common/built-in.o
 .text.mdio_get_current_dev
                0x000000004a013e5c       0x10 common/built-in.o
                0x000000004a013e5c                mdio_get_current_dev
 .text.mdio_phydev_for_ethname
                0x000000004a013e6c       0x8c common/built-in.o
                0x000000004a013e6c                mdio_phydev_for_ethname
 .text.miiphy_get_current_dev
                0x000000004a013ef8       0x18 common/built-in.o
                0x000000004a013ef8                miiphy_get_current_dev
 .text.miiphy_read
                0x000000004a013f10       0x4c common/built-in.o
                0x000000004a013f10                miiphy_read
 .text.miiphy_write
                0x000000004a013f5c       0x40 common/built-in.o
                0x000000004a013f5c                miiphy_write
 .text.miiphy_listdev
                0x000000004a013f9c       0x74 common/built-in.o
                0x000000004a013f9c                miiphy_listdev
 .text.miiphy_info
                0x000000004a014010       0x88 common/built-in.o
                0x000000004a014010                miiphy_info
 .text.miiphy_is_1000base_x
                0x000000004a014098       0x44 common/built-in.o
                0x000000004a014098                miiphy_is_1000base_x
 .text.miiphy_speed
                0x000000004a0140dc      0x120 common/built-in.o
                0x000000004a0140dc                miiphy_speed
 .text.miiphy_duplex
                0x000000004a0141fc      0x148 common/built-in.o
                0x000000004a0141fc                miiphy_duplex
 .text.usb_set_maxpacket_ep
                0x000000004a014344       0x70 common/built-in.o
 .text.usb_control_msg
                0x000000004a0143b4       0x9c common/built-in.o
                0x000000004a0143b4                usb_control_msg
 .text.usb_get_descriptor
                0x000000004a014450       0x58 common/built-in.o
 .text.get_descriptor_len
                0x000000004a0144a8       0x90 common/built-in.o
 .text.usb_get_string
                0x000000004a014538       0x70 common/built-in.o
 .text.usb_string_sub
                0x000000004a0145a8      0x108 common/built-in.o
 .text.usb_bulk_msg
                0x000000004a0146b0       0x70 common/built-in.o
                0x000000004a0146b0                usb_bulk_msg
 .text.usb_maxpacket
                0x000000004a014720       0x1c common/built-in.o
                0x000000004a014720                usb_maxpacket
 .text.usb_clear_halt
                0x000000004a01473c       0x90 common/built-in.o
                0x000000004a01473c                usb_clear_halt
 .text.usb_get_configuration_len
                0x000000004a0147cc       0x74 common/built-in.o
                0x000000004a0147cc                usb_get_configuration_len
 .text.usb_get_configuration_no
                0x000000004a014840       0x34 common/built-in.o
                0x000000004a014840                usb_get_configuration_no
 .text.usb_set_interface
                0x000000004a014874       0xb4 common/built-in.o
                0x000000004a014874                usb_set_interface
 .text.usb_set_protocol
                0x000000004a014928       0x4c common/built-in.o
                0x000000004a014928                usb_set_protocol
 .text.usb_set_idle
                0x000000004a014974       0x54 common/built-in.o
                0x000000004a014974                usb_set_idle
 .text.usb_string
                0x000000004a0149c8      0x100 common/built-in.o
                0x000000004a0149c8                usb_string
 .text.usb_select_config
                0x000000004a014ac8      0x47c common/built-in.o
                0x000000004a014ac8                usb_select_config
 .text.usb_setup_device
                0x000000004a014f44      0x198 common/built-in.o
                0x000000004a014f44                usb_setup_device
 .text.usb_device_has_child_on_port
                0x000000004a0150dc        0x8 common/built-in.o
                0x000000004a0150dc                usb_device_has_child_on_port
 .text.usb_find_usb2_hub_address_port
                0x000000004a0150e4       0x78 common/built-in.o
                0x000000004a0150e4                usb_find_usb2_hub_address_port
 .text.usb_set_port_feature
                0x000000004a01515c       0x4c common/built-in.o
 .text.usb_clear_port_feature
                0x000000004a0151a8       0x4c common/built-in.o
 .text.usb_get_hub_descriptor
                0x000000004a0151f4       0x4c common/built-in.o
 .text.usb_hub_reset_devices
                0x000000004a015240        0x4 common/built-in.o
                0x000000004a015240                usb_hub_reset_devices
 .text.usb_get_port_status
                0x000000004a015244       0x4c common/built-in.o
                0x000000004a015244                usb_get_port_status
 .text.usb_hub_reset
                0x000000004a015290       0x20 common/built-in.o
                0x000000004a015290                usb_hub_reset
 .text.legacy_hub_port_reset
                0x000000004a0152b0       0xac common/built-in.o
                0x000000004a0152b0                legacy_hub_port_reset
 .text.usb_hub_port_connect_change
                0x000000004a01535c      0x118 common/built-in.o
                0x000000004a01535c                usb_hub_port_connect_change
 .text.usb_hub_configure
                0x000000004a015474      0x4b8 common/built-in.o
 .text.usb_hub_scan
                0x000000004a01592c       0x10 common/built-in.o
                0x000000004a01592c                usb_hub_scan
 .text.usb_hub_post_probe
                0x000000004a01593c        0x4 common/built-in.o
 .text.usb_stor_irq
                0x000000004a015940       0x1c common/built-in.o
 .text.usb_stor_BBB_reset
                0x000000004a01595c      0x100 common/built-in.o
 .text.usb_stor_CB_reset
                0x000000004a015a5c       0xdc common/built-in.o
 .text.usb_stor_BBB_clear_endpt_stall.isra.0
                0x000000004a015b38       0x40 common/built-in.o
 .text.usb_stor_BBB_transport
                0x000000004a015b78      0x270 common/built-in.o
 .text.usb_stor_CB_comdat
                0x000000004a015de8      0x204 common/built-in.o
 .text.usb_stor_CBI_get_status.isra.2
                0x000000004a015fec       0xd4 common/built-in.o
 .text.usb_stor_CB_transport
                0x000000004a0160c0      0x234 common/built-in.o
 .text.usb_request_sense.constprop.10
                0x000000004a0162f4       0x70 common/built-in.o
 .text.usb_stor_read
                0x000000004a016364      0x1b0 common/built-in.o
 .text.usb_stor_write
                0x000000004a016514      0x1b0 common/built-in.o
 .text.usb_stor_info
                0x000000004a0166c4       0x74 common/built-in.o
                0x000000004a0166c4                usb_stor_info
 .text.usb_stor_reset
                0x000000004a016738       0x14 common/built-in.o
                0x000000004a016738                usb_stor_reset
 .text.usb_stor_scan
                0x000000004a01674c       0x48 common/built-in.o
                0x000000004a01674c                usb_stor_scan
 .text.usb_storage_probe
                0x000000004a016794      0x204 common/built-in.o
                0x000000004a016794                usb_storage_probe
 .text.usb_stor_get_info
                0x000000004a016998      0x328 common/built-in.o
                0x000000004a016998                usb_stor_get_info
 .text.usb_mass_storage_probe
                0x000000004a016cc0      0x1c4 common/built-in.o
 .text.iomux_doenv
                0x000000004a016e84      0x1c8 common/built-in.o
                0x000000004a016e84                iomux_doenv
 .text.snip     0x000000004a01704c       0x64 common/built-in.o
 .text.edid_check_info
                0x000000004a0170b0       0x54 common/built-in.o
                0x000000004a0170b0                edid_check_info
 .text.edid_check_checksum
                0x000000004a017104       0x30 common/built-in.o
                0x000000004a017104                edid_check_checksum
 .text.edid_print_info
                0x000000004a017134      0x610 common/built-in.o
                0x000000004a017134                edid_print_info
 .text.menu_display_statusline
                0x000000004a017744        0x4 common/built-in.o
                0x000000004a017744                menu_display_statusline
 .text.menu_default_set
                0x000000004a017748       0x88 common/built-in.o
                0x000000004a017748                menu_default_set
 .text.menu_get_choice
                0x000000004a0177d0      0x1dc common/built-in.o
                0x000000004a0177d0                menu_get_choice
 .text.menu_item_add
                0x000000004a0179ac       0xdc common/built-in.o
                0x000000004a0179ac                menu_item_add
 .text.menu_create
                0x000000004a017a88       0x90 common/built-in.o
                0x000000004a017a88                menu_create
 .text.menu_destroy
                0x000000004a017b18       0x74 common/built-in.o
                0x000000004a017b18                menu_destroy
 .text.scsi_ident_cpy
                0x000000004a017b8c       0x60 common/built-in.o
 .text.scsi_write
                0x000000004a017bec      0x180 common/built-in.o
 .text.scsi_setup_read16
                0x000000004a017d6c       0x8c common/built-in.o
                0x000000004a017d6c                scsi_setup_read16
 .text.scsi_read
                0x000000004a017df8      0x1ec common/built-in.o
 .text.scsi_scan
                0x000000004a017fe4      0x478 common/built-in.o
                0x000000004a017fe4                scsi_scan
 .text.usb_kbd_remove
                0x000000004a01845c       0xa0 common/built-in.o
 .text.usb_kbd_translate.part.0
                0x000000004a0184fc      0x138 common/built-in.o
 .text.usb_kbd_probe
                0x000000004a018634      0x1e4 common/built-in.o
 .text.usb_kbd_irq_worker
                0x000000004a018818      0x1b4 common/built-in.o
 .text.usb_kbd_getc
                0x000000004a0189cc       0xd8 common/built-in.o
 .text.usb_kbd_testc
                0x000000004a018aa4       0xf4 common/built-in.o
 .text.usb_kbd_irq
                0x000000004a018b98       0x24 common/built-in.o
 .text.env_get_char_spec
                0x000000004a018bbc        0xc common/built-in.o
                0x000000004a018bbc                env_get_char_spec
 .text.env_get_addr
                0x000000004a018bc8       0x20 common/built-in.o
                0x000000004a018bc8                env_get_addr
 .text.env_get_char_memory
                0x000000004a018be8       0x10 common/built-in.o
                0x000000004a018be8                env_get_char_memory
 .text.env_get_char
                0x000000004a018bf8       0x30 common/built-in.o
                0x000000004a018bf8                env_get_char
 .text.getenv_yesno
                0x000000004a018c28       0x40 common/built-in.o
                0x000000004a018c28                getenv_yesno
 .text.getenv_default
                0x000000004a018c68       0x30 common/built-in.o
                0x000000004a018c68                getenv_default
 .text.set_default_env
                0x000000004a018c98       0xcc common/built-in.o
                0x000000004a018c98                set_default_env
 .text.set_default_vars
                0x000000004a018d64       0x38 common/built-in.o
                0x000000004a018d64                set_default_vars
 .text.env_import
                0x000000004a018d9c       0xe0 common/built-in.o
                0x000000004a018d9c                env_import
 .text.env_export
                0x000000004a018e7c       0xa4 common/built-in.o
                0x000000004a018e7c                env_export
 .text.env_relocate
                0x000000004a018f20       0x2c common/built-in.o
                0x000000004a018f20                env_relocate
 .text.env_complete
                0x000000004a018f4c       0xf0 common/built-in.o
                0x000000004a018f4c                env_complete
 .text.console_tstc
                0x000000004a01903c       0x88 common/built-in.o
 .text.console_putc
                0x000000004a0190c4       0x54 common/built-in.o
 .text.console_puts
                0x000000004a019118       0x54 common/built-in.o
 .text.pre_console_putc
                0x000000004a01916c       0x1c common/built-in.o
 .text.on_console
                0x000000004a019188       0xbc common/built-in.o
 .text.serial_printf
                0x000000004a019244       0x50 common/built-in.o
                0x000000004a019244                serial_printf
 .text.console_getc.isra.0
                0x000000004a019294       0x28 common/built-in.o
 .text.putc     0x000000004a0192bc       0x38 common/built-in.o
                0x000000004a0192bc                putc
 .text.tstc     0x000000004a0192f4       0x24 common/built-in.o
                0x000000004a0192f4                tstc
 .text.getc     0x000000004a019318       0x44 common/built-in.o
                0x000000004a019318                getc
 .text.puts     0x000000004a01935c       0x70 common/built-in.o
                0x000000004a01935c                puts
 .text.print_pre_console_buffer
                0x000000004a0193cc       0xf4 common/built-in.o
 .text.fputs    0x000000004a0194c0        0xc common/built-in.o
                0x000000004a0194c0                fputs
 .text.fprintf  0x000000004a0194cc       0x58 common/built-in.o
                0x000000004a0194cc                fprintf
 .text.ctrlc    0x000000004a019524       0x58 common/built-in.o
                0x000000004a019524                ctrlc
 .text.disable_ctrlc
                0x000000004a01957c       0x18 common/built-in.o
                0x000000004a01957c                disable_ctrlc
 .text.had_ctrlc
                0x000000004a019594       0x10 common/built-in.o
                0x000000004a019594                had_ctrlc
 .text.clear_ctrlc
                0x000000004a0195a4       0x14 common/built-in.o
                0x000000004a0195a4                clear_ctrlc
 .text.search_device
                0x000000004a0195b8       0x28 common/built-in.o
                0x000000004a0195b8                search_device
 .text.console_assign
                0x000000004a0195e0       0xd8 common/built-in.o
                0x000000004a0195e0                console_assign
 .text.console_init_f
                0x000000004a0196b8       0x1c common/built-in.o
                0x000000004a0196b8                console_init_f
 .text.stdio_print_current_devices
                0x000000004a0196d4       0xb0 common/built-in.o
                0x000000004a0196d4                stdio_print_current_devices
 .text.console_init_r
                0x000000004a019784      0x1bc common/built-in.o
                0x000000004a019784                console_init_r
 .text.sbrk     0x000000004a019940       0x6c common/built-in.o
                0x000000004a019940                sbrk
 .text.mem_malloc_init
                0x000000004a0199ac       0x2c common/built-in.o
                0x000000004a0199ac                mem_malloc_init
 .text.malloc_trim
                0x000000004a0199d8       0xcc common/built-in.o
                0x000000004a0199d8                malloc_trim
 .text.free     0x000000004a019aa4      0x24c common/built-in.o
                0x000000004a019aa4                free
 .text.malloc   0x000000004a019cf0      0x628 common/built-in.o
                0x000000004a019cf0                malloc
 .text.calloc   0x000000004a01a318      0x110 common/built-in.o
                0x000000004a01a318                calloc
 .text.realloc  0x000000004a01a428      0x4e0 common/built-in.o
                0x000000004a01a428                realloc
 .text.memalign
                0x000000004a01a908      0x170 common/built-in.o
                0x000000004a01a908                memalign
 .text.initf_malloc
                0x000000004a01aa78       0x18 common/built-in.o
                0x000000004a01aa78                initf_malloc
 .text.malloc_simple
                0x000000004a01aa90       0x30 common/built-in.o
                0x000000004a01aa90                malloc_simple
 .text.on_loadaddr
                0x000000004a01aac0       0x38 common/built-in.o
 .text.image_check_hcrc
                0x000000004a01aaf8       0x4c common/built-in.o
                0x000000004a01aaf8                image_check_hcrc
 .text.image_check_dcrc
                0x000000004a01ab44       0x38 common/built-in.o
                0x000000004a01ab44                image_check_dcrc
 .text.image_multi_count
                0x000000004a01ab7c       0x1c common/built-in.o
                0x000000004a01ab7c                image_multi_count
 .text.image_multi_getimg
                0x000000004a01ab98       0x80 common/built-in.o
                0x000000004a01ab98                image_multi_getimg
 .text.getenv_bootm_low
                0x000000004a01ac18       0x30 common/built-in.o
                0x000000004a01ac18                getenv_bootm_low
 .text.getenv_bootm_size
                0x000000004a01ac48       0x68 common/built-in.o
                0x000000004a01ac48                getenv_bootm_size
 .text.getenv_bootm_mapsize
                0x000000004a01acb0       0x30 common/built-in.o
                0x000000004a01acb0                getenv_bootm_mapsize
 .text.memmove_wd
                0x000000004a01ace0        0xc common/built-in.o
                0x000000004a01ace0                memmove_wd
 .text.genimg_print_size
                0x000000004a01acec       0x30 common/built-in.o
                0x000000004a01acec                genimg_print_size
 .text.get_table_entry
                0x000000004a01ad1c       0x24 common/built-in.o
                0x000000004a01ad1c                get_table_entry
 .text.get_table_entry_name
                0x000000004a01ad40       0x20 common/built-in.o
                0x000000004a01ad40                get_table_entry_name
 .text.genimg_get_os_name
                0x000000004a01ad60       0x18 common/built-in.o
                0x000000004a01ad60                genimg_get_os_name
 .text.genimg_get_arch_name
                0x000000004a01ad78       0x18 common/built-in.o
                0x000000004a01ad78                genimg_get_arch_name
 .text.genimg_get_type_name
                0x000000004a01ad90       0x18 common/built-in.o
                0x000000004a01ad90                genimg_get_type_name
 .text.genimg_get_comp_name
                0x000000004a01ada8       0x18 common/built-in.o
                0x000000004a01ada8                genimg_get_comp_name
 .text.image_print_contents
                0x000000004a01adc0      0x1a8 common/built-in.o
                0x000000004a01adc0                image_print_contents
 .text.genimg_get_kernel_addr_fit
                0x000000004a01af68       0x24 common/built-in.o
                0x000000004a01af68                genimg_get_kernel_addr_fit
 .text.genimg_get_kernel_addr
                0x000000004a01af8c       0x24 common/built-in.o
                0x000000004a01af8c                genimg_get_kernel_addr
 .text.genimg_get_format
                0x000000004a01afb0       0x34 common/built-in.o
                0x000000004a01afb0                genimg_get_format
 .text.genimg_get_image
                0x000000004a01afe4        0x4 common/built-in.o
                0x000000004a01afe4                genimg_get_image
 .text.genimg_has_config
                0x000000004a01afe8        0x8 common/built-in.o
                0x000000004a01afe8                genimg_has_config
 .text.boot_get_ramdisk
                0x000000004a01aff0      0x274 common/built-in.o
                0x000000004a01aff0                boot_get_ramdisk
 .text.boot_ramdisk_high
                0x000000004a01b264      0x138 common/built-in.o
                0x000000004a01b264                boot_ramdisk_high
 .text.boot_get_setup
                0x000000004a01b39c        0x8 common/built-in.o
                0x000000004a01b39c                boot_get_setup
 .text.image_setup_linux
                0x000000004a01b3a4       0x68 common/built-in.o
                0x000000004a01b3a4                image_setup_linux
 .text.fdt_error
                0x000000004a01b40c       0x2c common/built-in.o
 .text.boot_fdt_add_mem_rsv_regions
                0x000000004a01b438       0x88 common/built-in.o
                0x000000004a01b438                boot_fdt_add_mem_rsv_regions
 .text.boot_relocate_fdt
                0x000000004a01b4c0      0x198 common/built-in.o
                0x000000004a01b4c0                boot_relocate_fdt
 .text.boot_get_fdt
                0x000000004a01b658      0x2ac common/built-in.o
                0x000000004a01b658                boot_get_fdt
 .text.ft_verify_fdt
                0x000000004a01b904        0x8 common/built-in.o
                0x000000004a01b904                ft_verify_fdt
 .text.image_setup_libfdt
                0x000000004a01b90c      0x138 common/built-in.o
                0x000000004a01b90c                image_setup_libfdt
 .text.get_ram_size
                0x000000004a01ba44       0xe0 common/built-in.o
                0x000000004a01ba44                get_ram_size
 .text.get_effective_memsize
                0x000000004a01bb24        0x8 common/built-in.o
                0x000000004a01bb24                get_effective_memsize
 .text.nulldev_putc
                0x000000004a01bb2c        0x4 common/built-in.o
 .text.nulldev_puts
                0x000000004a01bb30        0x4 common/built-in.o
 .text.nulldev_input
                0x000000004a01bb34        0x8 common/built-in.o
 .text.stdio_serial_tstc
                0x000000004a01bb3c        0x4 common/built-in.o
 .text.stdio_serial_getc
                0x000000004a01bb40        0x4 common/built-in.o
 .text.stdio_serial_puts
                0x000000004a01bb44        0x8 common/built-in.o
 .text.stdio_serial_putc
                0x000000004a01bb4c        0x8 common/built-in.o
 .text.stdio_get_list
                0x000000004a01bb54        0xc common/built-in.o
                0x000000004a01bb54                stdio_get_list
 .text.stdio_get_by_name
                0x000000004a01bb60       0x5c common/built-in.o
                0x000000004a01bb60                stdio_get_by_name
 .text.stdio_clone
                0x000000004a01bbbc       0x38 common/built-in.o
                0x000000004a01bbbc                stdio_clone
 .text.stdio_register_dev
                0x000000004a01bbf4       0x50 common/built-in.o
                0x000000004a01bbf4                stdio_register_dev
 .text.stdio_register
                0x000000004a01bc44        0x8 common/built-in.o
                0x000000004a01bc44                stdio_register
 .text.stdio_deregister_dev
                0x000000004a01bc4c       0xf0 common/built-in.o
                0x000000004a01bc4c                stdio_deregister_dev
 .text.stdio_init_tables
                0x000000004a01bd3c       0x1c common/built-in.o
                0x000000004a01bd3c                stdio_init_tables
 .text.stdio_add_devices
                0x000000004a01bd58      0x130 common/built-in.o
                0x000000004a01bd58                stdio_add_devices
 .text.cli_simple_process_macros
                0x000000004a01be88      0x218 common/built-in.o
                0x000000004a01be88                cli_simple_process_macros
 .text.run_command
                0x000000004a01c0a0       0x10 common/built-in.o
                0x000000004a01c0a0                run_command
 .text.run_command_list
                0x000000004a01c0b0       0x7c common/built-in.o
                0x000000004a01c0b0                run_command_list
 .text.do_run   0x000000004a01c12c       0x78 common/built-in.o
                0x000000004a01c12c                do_run
 .text.cli_process_fdt
                0x000000004a01c1a4       0x40 common/built-in.o
                0x000000004a01c1a4                cli_process_fdt
 .text.cli_secure_boot_cmd
                0x000000004a01c1e4       0x78 common/built-in.o
                0x000000004a01c1e4                cli_secure_boot_cmd
 .text.cli_loop
                0x000000004a01c25c        0xc common/built-in.o
                0x000000004a01c25c                cli_loop
 .text.cli_init
                0x000000004a01c268        0x4 common/built-in.o
                0x000000004a01c268                cli_init
 .text.delete_char.part.0
                0x000000004a01c26c       0xd0 common/built-in.o
 .text.cread_add_char
                0x000000004a01c33c       0xe8 common/built-in.o
 .text.cli_readline_into_buffer
                0x000000004a01c424      0xa74 common/built-in.o
                0x000000004a01c424                cli_readline_into_buffer
 .text.cli_readline
                0x000000004a01ce98       0x14 common/built-in.o
                0x000000004a01ce98                cli_readline
 .text.find_cmd_tbl
                0x000000004a01ceac       0xa4 common/built-in.o
                0x000000004a01ceac                find_cmd_tbl
 .text.find_cmd
                0x000000004a01cf50       0x28 common/built-in.o
                0x000000004a01cf50                find_cmd
 .text.cmd_usage
                0x000000004a01cf78       0x5c common/built-in.o
                0x000000004a01cf78                cmd_usage
 .text._do_help
                0x000000004a01cfd4      0x178 common/built-in.o
                0x000000004a01cfd4                _do_help
 .text.var_complete
                0x000000004a01d14c       0x84 common/built-in.o
                0x000000004a01d14c                var_complete
 .text.cmd_auto_complete
                0x000000004a01d1d0      0x4b4 common/built-in.o
                0x000000004a01d1d0                cmd_auto_complete
 .text.cmd_get_data_size
                0x000000004a01d684       0x5c common/built-in.o
                0x000000004a01d684                cmd_get_data_size
 .text.cmd_process
                0x000000004a01d6e0       0xec common/built-in.o
                0x000000004a01d6e0                cmd_process
 .text.cmd_process_error
                0x000000004a01d7cc       0x30 common/built-in.o
                0x000000004a01d7cc                cmd_process_error
 .text.hex1_bin
                0x000000004a01d7fc       0x40 common/built-in.o
 .text.hex2_bin
                0x000000004a01d83c       0x38 common/built-in.o
 .text.srec_decode
                0x000000004a01d874      0x254 common/built-in.o
                0x000000004a01d874                srec_decode
 .text.CYGACC_COMM_IF_GETC_TIMEOUT.isra.0
                0x000000004a01dac8       0x4c common/built-in.o
 .text.xyzModem_flush
                0x000000004a01db14       0x1c common/built-in.o
 .text.xyzModem_get_hdr
                0x000000004a01db30      0x238 common/built-in.o
 .text.xyzModem_stream_open
                0x000000004a01dd68      0x224 common/built-in.o
                0x000000004a01dd68                xyzModem_stream_open
 .text.xyzModem_stream_read
                0x000000004a01df8c      0x254 common/built-in.o
                0x000000004a01df8c                xyzModem_stream_read
 .text.xyzModem_stream_close
                0x000000004a01e1e0       0x54 common/built-in.o
                0x000000004a01e1e0                xyzModem_stream_close
 .text.xyzModem_stream_terminate
                0x000000004a01e234       0x94 common/built-in.o
                0x000000004a01e234                xyzModem_stream_terminate
 .text.xyzModem_error
                0x000000004a01e2c8       0x20 common/built-in.o
                0x000000004a01e2c8                xyzModem_error
 .text.blk_get_dev
                0x000000004a01e2e8       0x30 disk/built-in.o
                0x000000004a01e2e8                blk_get_dev
 .text.dev_print
                0x000000004a01e318      0x238 disk/built-in.o
                0x000000004a01e318                dev_print
 .text.part_init
                0x000000004a01e550       0x54 disk/built-in.o
                0x000000004a01e550                part_init
 .text.part_print
                0x000000004a01e5a4      0x12c disk/built-in.o
                0x000000004a01e5a4                part_print
 .text.part_get_info
                0x000000004a01e6d0       0x70 disk/built-in.o
                0x000000004a01e6d0                part_get_info
 .text.blk_get_device_by_str
                0x000000004a01e740      0x150 disk/built-in.o
                0x000000004a01e740                blk_get_device_by_str
 .text.blk_get_device_part_str
                0x000000004a01e890      0x40c disk/built-in.o
                0x000000004a01e890                blk_get_device_part_str
 .text.part_set_generic_name
                0x000000004a01ec9c       0x4c disk/built-in.o
                0x000000004a01ec9c                part_set_generic_name
 .text.test_block_type
                0x000000004a01ece8       0x84 disk/built-in.o
 .text.print_partition_extended
                0x000000004a01ed6c      0x2b4 disk/built-in.o
 .text.part_print_dos
                0x000000004a01f020       0x40 disk/built-in.o
                0x000000004a01f020                part_print_dos
 .text.part_test_dos
                0x000000004a01f060       0x70 disk/built-in.o
 .text.part_get_info_extended
                0x000000004a01f0d0      0x310 disk/built-in.o
 .text.part_get_info_dos
                0x000000004a01f3e0       0x34 disk/built-in.o
                0x000000004a01f3e0                part_get_info_dos
 .text.iso_dread
                0x000000004a01f414       0x58 disk/built-in.o
                0x000000004a01f414                iso_dread
 .text.part_get_info_iso_verb
                0x000000004a01f46c      0x44c disk/built-in.o
                0x000000004a01f46c                part_get_info_iso_verb
 .text.part_test_iso
                0x000000004a01f8b8       0x20 disk/built-in.o
 .text.part_print_iso
                0x000000004a01f8d8       0x9c disk/built-in.o
 .text.part_get_info_iso
                0x000000004a01f974        0x8 disk/built-in.o
 .text.print_efiname
                0x000000004a01f97c       0x58 disk/built-in.o
 .text.part_test_efi
                0x000000004a01f9d4       0xd8 disk/built-in.o
 .text.validate_gpt_entries
                0x000000004a01faac       0x98 disk/built-in.o
 *fill*         0x000000004a01fb44        0x4 
 .text.validate_gpt_header
                0x000000004a01fb48      0x230 disk/built-in.o
 .text.is_gpt_valid
                0x000000004a01fd78      0x1f0 disk/built-in.o
 .text.is_pte_valid
                0x000000004a01ff68       0x58 disk/built-in.o
 .text.part_print_efi
                0x000000004a01ffc0      0x270 disk/built-in.o
                0x000000004a01ffc0                part_print_efi
 .text.part_get_info_efi
                0x000000004a020230      0x234 disk/built-in.o
                0x000000004a020230                part_get_info_efi
 .text.device_bind_common.isra.0
                0x000000004a020464      0x348 drivers/built-in.o
 .text.alloc_priv
                0x000000004a0207ac       0x54 drivers/built-in.o
 .text.device_bind_with_driver_data
                0x000000004a020800       0x24 drivers/built-in.o
                0x000000004a020800                device_bind_with_driver_data
 .text.device_bind
                0x000000004a020824       0x28 drivers/built-in.o
                0x000000004a020824                device_bind
 .text.device_bind_by_name
                0x000000004a02084c       0x68 drivers/built-in.o
                0x000000004a02084c                device_bind_by_name
 .text.device_probe
                0x000000004a0208b4      0x238 drivers/built-in.o
                0x000000004a0208b4                device_probe
 .text.dev_get_platdata
                0x000000004a020aec       0x34 drivers/built-in.o
                0x000000004a020aec                dev_get_platdata
 .text.dev_get_parent_platdata
                0x000000004a020b20       0x34 drivers/built-in.o
                0x000000004a020b20                dev_get_parent_platdata
 .text.dev_get_uclass_platdata
                0x000000004a020b54       0x34 drivers/built-in.o
                0x000000004a020b54                dev_get_uclass_platdata
 .text.dev_get_priv
                0x000000004a020b88       0x34 drivers/built-in.o
                0x000000004a020b88                dev_get_priv
 .text.dev_get_uclass_priv
                0x000000004a020bbc       0x34 drivers/built-in.o
                0x000000004a020bbc                dev_get_uclass_priv
 .text.dev_get_parent_priv
                0x000000004a020bf0       0x34 drivers/built-in.o
                0x000000004a020bf0                dev_get_parent_priv
 .text.device_get_child
                0x000000004a020c24       0x58 drivers/built-in.o
                0x000000004a020c24                device_get_child
 .text.device_find_first_child
                0x000000004a020c7c       0x1c drivers/built-in.o
                0x000000004a020c7c                device_find_first_child
 .text.device_find_next_child
                0x000000004a020c98       0x28 drivers/built-in.o
                0x000000004a020c98                device_find_next_child
 .text.dev_get_driver_data
                0x000000004a020cc0        0x8 drivers/built-in.o
                0x000000004a020cc0                dev_get_driver_data
 .text.device_get_uclass_id
                0x000000004a020cc8       0x10 drivers/built-in.o
                0x000000004a020cc8                device_get_uclass_id
 .text.dev_get_addr_index
                0x000000004a020cd8       0xac drivers/built-in.o
                0x000000004a020cd8                dev_get_addr_index
 .text.dev_get_addr
                0x000000004a020d84        0x8 drivers/built-in.o
                0x000000004a020d84                dev_get_addr
 .text.device_has_active_children
                0x000000004a020d8c       0x3c drivers/built-in.o
                0x000000004a020d8c                device_has_active_children
 .text.device_is_last_sibling
                0x000000004a020dc8       0x24 drivers/built-in.o
                0x000000004a020dc8                device_is_last_sibling
 .text.lists_driver_lookup_name
                0x000000004a020dec       0x4c drivers/built-in.o
                0x000000004a020dec                lists_driver_lookup_name
 .text.lists_uclass_lookup
                0x000000004a020e38       0x3c drivers/built-in.o
                0x000000004a020e38                lists_uclass_lookup
 .text.lists_bind_drivers
                0x000000004a020e74       0x88 drivers/built-in.o
                0x000000004a020e74                lists_bind_drivers
 .text.device_bind_driver_to_node
                0x000000004a020efc       0x48 drivers/built-in.o
                0x000000004a020efc                device_bind_driver_to_node
 .text.device_bind_driver
                0x000000004a020f44       0x18 drivers/built-in.o
                0x000000004a020f44                device_bind_driver
 .text.lists_bind_fdt
                0x000000004a020f5c      0x190 drivers/built-in.o
                0x000000004a020f5c                lists_bind_fdt
 .text.dm_root  0x000000004a0210ec       0x2c drivers/built-in.o
                0x000000004a0210ec                dm_root
 .text.dm_get_translation_offset
                0x000000004a021118       0x14 drivers/built-in.o
                0x000000004a021118                dm_get_translation_offset
 .text.dm_init  0x000000004a02112c       0x64 drivers/built-in.o
                0x000000004a02112c                dm_init
 .text.dm_remove_devices_flags
                0x000000004a021190       0x1c drivers/built-in.o
                0x000000004a021190                dm_remove_devices_flags
 .text.dm_scan_platdata
                0x000000004a0211ac       0x2c drivers/built-in.o
                0x000000004a0211ac                dm_scan_platdata
 .text.dm_scan_fdt_node
                0x000000004a0211d8       0xbc drivers/built-in.o
                0x000000004a0211d8                dm_scan_fdt_node
 .text.dm_scan_fdt_dev
                0x000000004a021294       0x28 drivers/built-in.o
                0x000000004a021294                dm_scan_fdt_dev
 .text.dm_scan_fdt
                0x000000004a0212bc       0x18 drivers/built-in.o
                0x000000004a0212bc                dm_scan_fdt
 .text.dm_scan_other
                0x000000004a0212d4        0x8 drivers/built-in.o
                0x000000004a0212d4                dm_scan_other
 .text.dm_init_and_scan
                0x000000004a0212dc       0x44 drivers/built-in.o
                0x000000004a0212dc                dm_init_and_scan
 .text.uclass_find
                0x000000004a021320       0x4c drivers/built-in.o
                0x000000004a021320                uclass_find
 .text.uclass_get
                0x000000004a02136c      0x124 drivers/built-in.o
                0x000000004a02136c                uclass_get
 .text.uclass_find_device
                0x000000004a021490       0x74 drivers/built-in.o
                0x000000004a021490                uclass_find_device
 .text.uclass_find_first_device
                0x000000004a021504       0x3c drivers/built-in.o
                0x000000004a021504                uclass_find_first_device
 .text.uclass_find_next_device
                0x000000004a021540       0x2c drivers/built-in.o
                0x000000004a021540                uclass_find_next_device
 .text.uclass_find_device_by_seq
                0x000000004a02156c       0x7c drivers/built-in.o
                0x000000004a02156c                uclass_find_device_by_seq
 .text.uclass_find_device_by_of_offset
                0x000000004a0215e8       0x6c drivers/built-in.o
                0x000000004a0215e8                uclass_find_device_by_of_offset
 .text.uclass_get_device_tail
                0x000000004a021654       0x2c drivers/built-in.o
                0x000000004a021654                uclass_get_device_tail
 .text.uclass_get_device
                0x000000004a021680       0x30 drivers/built-in.o
                0x000000004a021680                uclass_get_device
 .text.uclass_get_device_by_seq
                0x000000004a0216b0       0x54 drivers/built-in.o
                0x000000004a0216b0                uclass_get_device_by_seq
 .text.uclass_get_device_by_of_offset
                0x000000004a021704       0x30 drivers/built-in.o
                0x000000004a021704                uclass_get_device_by_of_offset
 .text.uclass_first_device
                0x000000004a021734       0x38 drivers/built-in.o
                0x000000004a021734                uclass_first_device
 .text.uclass_next_device
                0x000000004a02176c       0x40 drivers/built-in.o
                0x000000004a02176c                uclass_next_device
 .text.uclass_bind_device
                0x000000004a0217ac       0x7c drivers/built-in.o
                0x000000004a0217ac                uclass_bind_device
 .text.uclass_unbind_device
                0x000000004a021828       0x4c drivers/built-in.o
                0x000000004a021828                uclass_unbind_device
 .text.uclass_resolve_seq
                0x000000004a021874       0xb0 drivers/built-in.o
                0x000000004a021874                uclass_resolve_seq
 .text.uclass_pre_probe_device
                0x000000004a021924       0x64 drivers/built-in.o
                0x000000004a021924                uclass_pre_probe_device
 .text.uclass_post_probe_device
                0x000000004a021988       0x20 drivers/built-in.o
                0x000000004a021988                uclass_post_probe_device
 .text.uclass_pre_remove_device
                0x000000004a0219a8       0x20 drivers/built-in.o
                0x000000004a0219a8                uclass_pre_remove_device
 .text.dm_warn  0x000000004a0219c8       0x28 drivers/built-in.o
                0x000000004a0219c8                dm_warn
 .text.dm_fdt_pre_reloc
                0x000000004a0219f0       0x68 drivers/built-in.o
                0x000000004a0219f0                dm_fdt_pre_reloc
 .text.device_unbind
                0x000000004a021a58      0x150 drivers/built-in.o
                0x000000004a021a58                device_unbind
 .text.device_free
                0x000000004a021ba8       0x90 drivers/built-in.o
                0x000000004a021ba8                device_free
 .text.device_remove
                0x000000004a021c38      0x178 drivers/built-in.o
                0x000000004a021c38                device_remove
 .text.simple_bus_post_bind
                0x000000004a021db0       0x64 drivers/built-in.o
 .text.show_devices
                0x000000004a021e14       0xfc drivers/built-in.o
 .text.dm_dump_all
                0x000000004a021f10       0x3c drivers/built-in.o
                0x000000004a021f10                dm_dump_all
 .text.dm_dump_uclass
                0x000000004a021f4c       0xdc drivers/built-in.o
                0x000000004a021f4c                dm_dump_uclass
 .text.get_desc
                0x000000004a022028       0x6c drivers/built-in.o
 .text.blk_driver_lookup_type
                0x000000004a022094       0x3c drivers/built-in.o
                0x000000004a022094                blk_driver_lookup_type
 .text.blk_list_part
                0x000000004a0220d0       0x94 drivers/built-in.o
                0x000000004a0220d0                blk_list_part
 .text.blk_print_part_devnum
                0x000000004a022164       0x50 drivers/built-in.o
                0x000000004a022164                blk_print_part_devnum
 .text.blk_list_devices
                0x000000004a0221b4       0x70 drivers/built-in.o
                0x000000004a0221b4                blk_list_devices
 .text.blk_print_device_num
                0x000000004a022224       0x54 drivers/built-in.o
                0x000000004a022224                blk_print_device_num
 .text.blk_show_device
                0x000000004a022278       0x84 drivers/built-in.o
                0x000000004a022278                blk_show_device
 .text.blk_get_devnum_by_type
                0x000000004a0222fc       0x3c drivers/built-in.o
                0x000000004a0222fc                blk_get_devnum_by_type
 .text.blk_dselect_hwpart
                0x000000004a022338       0x48 drivers/built-in.o
                0x000000004a022338                blk_dselect_hwpart
 .text.blk_get_devnum_by_typename
                0x000000004a022380       0x70 drivers/built-in.o
                0x000000004a022380                blk_get_devnum_by_typename
 .text.blk_read_devnum
                0x000000004a0223f0       0x90 drivers/built-in.o
                0x000000004a0223f0                blk_read_devnum
 .text.blk_write_devnum
                0x000000004a022480       0x64 drivers/built-in.o
                0x000000004a022480                blk_write_devnum
 .text.blk_select_hwpart_devnum
                0x000000004a0224e4       0x48 drivers/built-in.o
                0x000000004a0224e4                blk_select_hwpart_devnum
 .text.ata_id_strcpy
                0x000000004a02252c       0x3c drivers/built-in.o
 .text.ahci_device_data_io.constprop.3
                0x000000004a022568      0x1dc drivers/built-in.o
 .text.ata_scsiop_inquiry
                0x000000004a022744      0x150 drivers/built-in.o
 .text.ahci_port_start
                0x000000004a022894      0x134 drivers/built-in.o
 .text.ata_scsiop_read_write
                0x000000004a0229c8      0x2b0 drivers/built-in.o
 .text.ahci_port_base
                0x000000004a022c78        0xc drivers/built-in.o
                0x000000004a022c78                ahci_port_base
 .text.ahci_link_up
                0x000000004a022c84       0x48 drivers/built-in.o
                0x000000004a022c84                ahci_link_up
 .text.ahci_reset
                0x000000004a022ccc       0x68 drivers/built-in.o
                0x000000004a022ccc                ahci_reset
 .text.scsi_exec
                0x000000004a022d34      0x178 drivers/built-in.o
                0x000000004a022d34                scsi_exec
 .text.ahci_init
                0x000000004a022eac      0x554 drivers/built-in.o
                0x000000004a022eac                ahci_init
 .text.scsi_bus_reset
                0x000000004a023400        0x4 drivers/built-in.o
                0x000000004a023400                scsi_bus_reset
 .text.scsi_print_error
                0x000000004a023404        0x4 drivers/built-in.o
                0x000000004a023404                scsi_print_error
 .text.ata_id_n_sectors
                0x000000004a023408       0x7c drivers/built-in.o
                0x000000004a023408                ata_id_n_sectors
 .text.ata_swap_buf_le16
                0x000000004a023484        0x4 drivers/built-in.o
                0x000000004a023484                ata_swap_buf_le16
 .text.video_drawchars
                0x000000004a023488      0x41c drivers/built-in.o
 .text.video_invertchar
                0x000000004a0238a4       0x6c drivers/built-in.o
 .text.cfb_video_putc.part.1
                0x000000004a023910       0x20 drivers/built-in.o
 .text.console_newline.constprop.3
                0x000000004a023930       0xc0 drivers/built-in.o
 .text.board_cfb_skip
                0x000000004a0239f0        0x8 drivers/built-in.o
                0x000000004a0239f0                board_cfb_skip
 .text.console_cursor
                0x000000004a0239f8       0xa0 drivers/built-in.o
                0x000000004a0239f8                console_cursor
 .text.cfb_video_putc
                0x000000004a023a98      0x19c drivers/built-in.o
 .text.cfb_video_puts
                0x000000004a023c34       0x74 drivers/built-in.o
 .text.video_set_lut
                0x000000004a023ca8        0x4 drivers/built-in.o
                0x000000004a023ca8                video_set_lut
 .text.plot_logo_or_black
                0x000000004a023cac      0x19c drivers/built-in.o
 .text.do_clrlogo
                0x000000004a023e48       0x34 drivers/built-in.o
 .text.video_clear
                0x000000004a023e7c       0x4c drivers/built-in.o
                0x000000004a023e7c                video_clear
 .text.board_video_skip
                0x000000004a023ec8        0x8 drivers/built-in.o
                0x000000004a023ec8                board_video_skip
 .text.drv_video_init
                0x000000004a023ed0      0x2cc drivers/built-in.o
                0x000000004a023ed0                drv_video_init
 .text.sunxi_is_composite
                0x000000004a02419c       0x20 drivers/built-in.o
 .text.sunxi_composer_mode_set
                0x000000004a0241bc       0xf0 drivers/built-in.o
 .text.sunxi_composer_enable
                0x000000004a0242ac       0x24 drivers/built-in.o
 .text.sunxi_lcdc_pll_set
                0x000000004a0242d0      0x188 drivers/built-in.o
 .text.await_completion.constprop.5
                0x000000004a024458       0x50 drivers/built-in.o
 .text.sunxi_hdmi_edid_get_block
                0x000000004a0244a8      0x138 drivers/built-in.o
 .text.board_get_usable_ram_top
                0x000000004a0245e0        0xc drivers/built-in.o
                0x000000004a0245e0                board_get_usable_ram_top
 .text.video_hw_init
                0x000000004a0245ec      0xe48 drivers/built-in.o
                0x000000004a0245ec                video_hw_init
 .text.sunxi_simplefb_setup
                0x000000004a025434      0x180 drivers/built-in.o
                0x000000004a025434                sunxi_simplefb_setup
 .text.video_get_param_len.constprop.1
                0x000000004a0255b4       0x20 drivers/built-in.o
 .text.video_get_video_mode
                0x000000004a0255d4      0x184 drivers/built-in.o
                0x000000004a0255d4                video_get_video_mode
 .text.video_get_ctfb_res_modes
                0x000000004a025758       0xf4 drivers/built-in.o
                0x000000004a025758                video_get_ctfb_res_modes
 .text.video_get_option_string
                0x000000004a02584c       0xac drivers/built-in.o
                0x000000004a02584c                video_get_option_string
 .text.video_get_option_int
                0x000000004a0258f8       0x84 drivers/built-in.o
                0x000000004a0258f8                video_get_option_int
 .text.video_edid_dtd_to_ctfb_res_modes
                0x000000004a02597c      0x268 drivers/built-in.o
                0x000000004a02597c                video_edid_dtd_to_ctfb_res_modes
 .text.keyboard_start
                0x000000004a025be4       0x24 drivers/built-in.o
 .text.keyboard_stop
                0x000000004a025c08       0x24 drivers/built-in.o
 .text.keyboard_pre_probe
                0x000000004a025c2c       0x6c drivers/built-in.o
 .text.keyboard_tstc
                0x000000004a025c98       0x50 drivers/built-in.o
 .text.keyboard_getc
                0x000000004a025ce8       0x50 drivers/built-in.o
 .text.input_tstc
                0x000000004a025d38       0x48 drivers/built-in.o
                0x000000004a025d38                input_tstc
 .text.input_getc
                0x000000004a025d80       0x5c drivers/built-in.o
                0x000000004a025d80                input_getc
 .text.input_init
                0x000000004a025ddc       0x24 drivers/built-in.o
                0x000000004a025ddc                input_init
 .text.gpio_to_device
                0x000000004a025e00       0x80 drivers/gpio/built-in.o
 .text.check_reserved
                0x000000004a025e80       0x74 drivers/gpio/built-in.o
 .text.gpio_renumber
                0x000000004a025ef4       0x84 drivers/gpio/built-in.o
 .text.gpio_pre_remove
                0x000000004a025f78       0x50 drivers/gpio/built-in.o
 .text.gpio_post_probe
                0x000000004a025fc8       0x38 drivers/gpio/built-in.o
 .text.dm_gpio_lookup_name
                0x000000004a026000      0x108 drivers/gpio/built-in.o
                0x000000004a026000                dm_gpio_lookup_name
 .text.gpio_lookup_name
                0x000000004a026108       0x70 drivers/gpio/built-in.o
                0x000000004a026108                gpio_lookup_name
 .text.gpio_xlate_offs_flags
                0x000000004a026178       0x44 drivers/gpio/built-in.o
                0x000000004a026178                gpio_xlate_offs_flags
 .text.dm_gpio_request
                0x000000004a0261bc       0xa0 drivers/gpio/built-in.o
                0x000000004a0261bc                dm_gpio_request
 .text.dm_gpio_requestf
                0x000000004a02625c       0x44 drivers/gpio/built-in.o
 .text.gpio_request
                0x000000004a0262a0       0x2c drivers/gpio/built-in.o
                0x000000004a0262a0                gpio_request
 .text._dm_gpio_free
                0x000000004a0262cc       0x74 drivers/gpio/built-in.o
                0x000000004a0262cc                _dm_gpio_free
 .text.gpio_free
                0x000000004a026340       0x28 drivers/gpio/built-in.o
                0x000000004a026340                gpio_free
 .text.gpio_direction_input
                0x000000004a026368       0x4c drivers/gpio/built-in.o
                0x000000004a026368                gpio_direction_input
 .text.gpio_direction_output
                0x000000004a0263b4       0x54 drivers/gpio/built-in.o
                0x000000004a0263b4                gpio_direction_output
 .text.dm_gpio_get_value
                0x000000004a026408       0x48 drivers/gpio/built-in.o
                0x000000004a026408                dm_gpio_get_value
 .text.dm_gpio_set_value
                0x000000004a026450       0x54 drivers/gpio/built-in.o
                0x000000004a026450                dm_gpio_set_value
 .text.dm_gpio_set_dir_flags
                0x000000004a0264a4       0x94 drivers/gpio/built-in.o
                0x000000004a0264a4                dm_gpio_set_dir_flags
 .text._gpio_request_by_name_nodev
                0x000000004a026538      0x100 drivers/gpio/built-in.o
 .text.gpio_get_value
                0x000000004a026638       0x24 drivers/gpio/built-in.o
                0x000000004a026638                gpio_get_value
 .text.gpio_set_value
                0x000000004a02665c       0x2c drivers/gpio/built-in.o
                0x000000004a02665c                gpio_set_value
 .text.gpio_get_bank_info
                0x000000004a026688       0x1c drivers/gpio/built-in.o
                0x000000004a026688                gpio_get_bank_info
 .text.get_function
                0x000000004a0266a4       0xac drivers/gpio/built-in.o
                0x000000004a0266a4                get_function
 .text.gpio_get_function
                0x000000004a026750        0xc drivers/gpio/built-in.o
                0x000000004a026750                gpio_get_function
 .text.gpio_get_raw_function
                0x000000004a02675c        0xc drivers/gpio/built-in.o
                0x000000004a02675c                gpio_get_raw_function
 .text.gpio_get_status
                0x000000004a026768      0x11c drivers/gpio/built-in.o
                0x000000004a026768                gpio_get_status
 .text.gpio_request_by_name_nodev
                0x000000004a026884       0x30 drivers/gpio/built-in.o
                0x000000004a026884                gpio_request_by_name_nodev
 .text.gpio_request_by_name
                0x000000004a0268b4       0x2c drivers/gpio/built-in.o
                0x000000004a0268b4                gpio_request_by_name
 .text.sunxi_gpio_set_value
                0x000000004a0268e0       0x40 drivers/gpio/built-in.o
 .text.sunxi_gpio_get_value
                0x000000004a026920       0x28 drivers/gpio/built-in.o
 .text.sunxi_gpio_get_function
                0x000000004a026948       0x30 drivers/gpio/built-in.o
 .text.sunxi_gpio_direction_output
                0x000000004a026978       0x54 drivers/gpio/built-in.o
 .text.sunxi_gpio_direction_input
                0x000000004a0269cc       0x24 drivers/gpio/built-in.o
 .text.gpio_sunxi_probe
                0x000000004a0269f0       0x34 drivers/gpio/built-in.o
 .text.gpio_sunxi_bind
                0x000000004a026a24       0xe0 drivers/gpio/built-in.o
 .text.sunxi_gpio_xlate
                0x000000004a026b04       0x40 drivers/gpio/built-in.o
 .text.sunxi_name_to_gpio
                0x000000004a026b44       0x24 drivers/gpio/built-in.o
                0x000000004a026b44                sunxi_name_to_gpio
 .text.i2c_get_adapter
                0x000000004a026b68       0x64 drivers/i2c/built-in.o
                0x000000004a026b68                i2c_get_adapter
 .text.i2c_init_bus
                0x000000004a026bcc       0x90 drivers/i2c/built-in.o
 .text.i2c_get_bus_num
                0x000000004a026c5c        0x8 drivers/i2c/built-in.o
                0x000000004a026c5c                i2c_get_bus_num
 .text.i2c_set_bus_num
                0x000000004a026c64       0xb8 drivers/i2c/built-in.o
                0x000000004a026c64                i2c_set_bus_num
 .text.i2c_init_all
                0x000000004a026d1c       0x14 drivers/i2c/built-in.o
                0x000000004a026d1c                i2c_init_all
 .text.i2c_probe
                0x000000004a026d30       0x2c drivers/i2c/built-in.o
                0x000000004a026d30                i2c_probe
 .text.i2c_read
                0x000000004a026d5c       0x4c drivers/i2c/built-in.o
                0x000000004a026d5c                i2c_read
 .text.i2c_write
                0x000000004a026da8       0x4c drivers/i2c/built-in.o
                0x000000004a026da8                i2c_write
 .text.i2c_set_bus_speed
                0x000000004a026df4       0x64 drivers/i2c/built-in.o
                0x000000004a026df4                i2c_set_bus_speed
 .text.i2c_get_bus_speed
                0x000000004a026e58       0x14 drivers/i2c/built-in.o
                0x000000004a026e58                i2c_get_bus_speed
 .text.i2c_init
                0x000000004a026e6c       0x14 drivers/i2c/built-in.o
                0x000000004a026e6c                i2c_init
 .text.__twsi_i2c_set_bus_speed
                0x000000004a026e80       0x94 drivers/i2c/built-in.o
 .text.twsi_get_base.isra.0
                0x000000004a026f14       0x30 drivers/i2c/built-in.o
 .text.twsi_i2c_set_bus_speed
                0x000000004a026f44       0x20 drivers/i2c/built-in.o
 .text.twsi_stop.constprop.6
                0x000000004a026f64       0x5c drivers/i2c/built-in.o
 .text.twsi_i2c_init
                0x000000004a026fc0       0x58 drivers/i2c/built-in.o
 .text.twsi_wait.constprop.10
                0x000000004a027018       0x8c drivers/i2c/built-in.o
 .text.i2c_begin.constprop.4
                0x000000004a0270a4       0x54 drivers/i2c/built-in.o
 .text.twsi_i2c_probe
                0x000000004a0270f8       0x68 drivers/i2c/built-in.o
 .text.twsi_i2c_write
                0x000000004a027160       0xf8 drivers/i2c/built-in.o
 .text.twsi_i2c_read
                0x000000004a027258      0x138 drivers/i2c/built-in.o
 .text.find_mmc_device
                0x000000004a027390       0x4c drivers/mmc/built-in.o
                0x000000004a027390                find_mmc_device
 .text.mmc_select_hwpartp
                0x000000004a0273dc       0x54 drivers/mmc/built-in.o
 .text.mmc_get_dev
                0x000000004a027430       0x30 drivers/mmc/built-in.o
 .text.mmc_get_next_devnum
                0x000000004a027460       0x18 drivers/mmc/built-in.o
                0x000000004a027460                mmc_get_next_devnum
 .text.mmc_get_blk_desc
                0x000000004a027478        0x8 drivers/mmc/built-in.o
                0x000000004a027478                mmc_get_blk_desc
 .text.get_mmc_num
                0x000000004a027480       0x10 drivers/mmc/built-in.o
                0x000000004a027480                get_mmc_num
 .text.mmc_do_preinit
                0x000000004a027490       0x3c drivers/mmc/built-in.o
                0x000000004a027490                mmc_do_preinit
 .text.mmc_list_init
                0x000000004a0274cc       0x24 drivers/mmc/built-in.o
                0x000000004a0274cc                mmc_list_init
 .text.mmc_list_add
                0x000000004a0274f0       0x24 drivers/mmc/built-in.o
                0x000000004a0274f0                mmc_list_add
 .text.print_mmc_devices
                0x000000004a027514       0xc0 drivers/mmc/built-in.o
                0x000000004a027514                print_mmc_devices
 .text.mmc_create
                0x000000004a0275d4       0xe0 drivers/mmc/built-in.o
                0x000000004a0275d4                mmc_create
 .text.mmc_set_ios
                0x000000004a0276b4       0x18 drivers/mmc/built-in.o
 .text.mmc_set_capacity
                0x000000004a0276cc       0xb0 drivers/mmc/built-in.o
 .text.board_mmc_getwp
                0x000000004a02777c        0x8 drivers/mmc/built-in.o
                0x000000004a02777c                board_mmc_getwp
 .text.mmc_getwp
                0x000000004a027784       0x3c drivers/mmc/built-in.o
                0x000000004a027784                mmc_getwp
 .text.board_mmc_getcd
                0x000000004a0277c0        0x8 drivers/mmc/built-in.o
                0x000000004a0277c0                board_mmc_getcd
 .text.mmc_send_cmd
                0x000000004a0277c8       0x10 drivers/mmc/built-in.o
                0x000000004a0277c8                mmc_send_cmd
 .text.mmc_send_ext_csd
                0x000000004a0277d8       0x4c drivers/mmc/built-in.o
 .text.mmc_go_idle
                0x000000004a027824       0x4c drivers/mmc/built-in.o
 .text.mmc_send_op_cond_iter
                0x000000004a027870       0x78 drivers/mmc/built-in.o
 .text.mmc_send_status
                0x000000004a0278e8       0xd0 drivers/mmc/built-in.o
                0x000000004a0278e8                mmc_send_status
 .text.mmc_set_blocklen
                0x000000004a0279b8       0x40 drivers/mmc/built-in.o
                0x000000004a0279b8                mmc_set_blocklen
 .text.mmc_bread
                0x000000004a0279f8      0x1b4 drivers/mmc/built-in.o
                0x000000004a0279f8                mmc_bread
 .text.mmc_switch
                0x000000004a027bac       0x68 drivers/mmc/built-in.o
                0x000000004a027bac                mmc_switch
 .text.mmc_switch_part
                0x000000004a027c14       0x64 drivers/mmc/built-in.o
                0x000000004a027c14                mmc_switch_part
 .text.mmc_hwpart_config
                0x000000004a027c78      0x43c drivers/mmc/built-in.o
                0x000000004a027c78                mmc_hwpart_config
 .text.mmc_getcd
                0x000000004a0280b4       0x3c drivers/mmc/built-in.o
                0x000000004a0280b4                mmc_getcd
 .text.mmc_set_clock
                0x000000004a0280f0       0x24 drivers/mmc/built-in.o
                0x000000004a0280f0                mmc_set_clock
 .text.mmc_startup
                0x000000004a028114      0xdb4 drivers/mmc/built-in.o
 .text.board_mmc_power_init
                0x000000004a028ec8        0x4 drivers/mmc/built-in.o
                0x000000004a028ec8                board_mmc_power_init
 .text.mmc_start_init
                0x000000004a028ecc      0x264 drivers/mmc/built-in.o
                0x000000004a028ecc                mmc_start_init
 .text.mmc_init
                0x000000004a029130      0x134 drivers/mmc/built-in.o
                0x000000004a029130                mmc_init
 .text.mmc_set_dsr
                0x000000004a029264        0xc drivers/mmc/built-in.o
                0x000000004a029264                mmc_set_dsr
 .text.cpu_mmc_init
                0x000000004a029270        0x8 drivers/mmc/built-in.o
                0x000000004a029270                cpu_mmc_init
 .text.mmc_initialize
                0x000000004a029278       0x5c drivers/mmc/built-in.o
                0x000000004a029278                mmc_initialize
 .text.mmc_berase
                0x000000004a0292d4      0x2ac drivers/mmc/built-in.o
                0x000000004a0292d4                mmc_berase
 .text.mmc_bwrite
                0x000000004a029580      0x1f8 drivers/mmc/built-in.o
                0x000000004a029580                mmc_bwrite
 .text.sunxi_mmc_core_init
                0x000000004a029778       0x28 drivers/mmc/built-in.o
 .text.sunxi_mmc_getcd_gpio
                0x000000004a0297a0       0x3c drivers/mmc/built-in.o
 .text.sunxi_mmc_getcd
                0x000000004a0297dc       0x30 drivers/mmc/built-in.o
 .text.mmc_update_clk.isra.1
                0x000000004a02980c       0x70 drivers/mmc/built-in.o
 .text.mmc_rint_wait.isra.3
                0x000000004a02987c       0x58 drivers/mmc/built-in.o
 .text.sunxi_mmc_send_cmd
                0x000000004a0298d4      0x320 drivers/mmc/built-in.o
 .text.mmc_set_mod_clk
                0x000000004a029bf4      0x100 drivers/mmc/built-in.o
 .text.sunxi_mmc_set_ios
                0x000000004a029cf4       0xec drivers/mmc/built-in.o
 .text.sunxi_mmc_init
                0x000000004a029de0      0x1ac drivers/mmc/built-in.o
                0x000000004a029de0                sunxi_mmc_init
 .text.designware_eth_bind
                0x000000004a029f8c        0x8 drivers/net/built-in.o
 .text.designware_eth_free_pkt
                0x000000004a029f94       0x4c drivers/net/built-in.o
                0x000000004a029f94                designware_eth_free_pkt
 .text.dw_mdio_write
                0x000000004a029fe0       0x88 drivers/net/built-in.o
 .text.dw_mdio_read
                0x000000004a02a068       0x88 drivers/net/built-in.o
 .text.designware_eth_recv
                0x000000004a02a0f0       0x68 drivers/net/built-in.o
                0x000000004a02a0f0                designware_eth_recv
 .text.designware_eth_send
                0x000000004a02a158       0xe4 drivers/net/built-in.o
                0x000000004a02a158                designware_eth_send
 .text.designware_eth_stop
                0x000000004a02a23c       0x4c drivers/net/built-in.o
                0x000000004a02a23c                designware_eth_stop
 .text.dw_mdio_reset
                0x000000004a02a288       0x94 drivers/net/built-in.o
 .text.designware_eth_probe
                0x000000004a02a31c      0x120 drivers/net/built-in.o
                0x000000004a02a31c                designware_eth_probe
 .text.designware_eth_ofdata_to_platdata
                0x000000004a02a43c      0x110 drivers/net/built-in.o
                0x000000004a02a43c                designware_eth_ofdata_to_platdata
 .text.designware_eth_remove
                0x000000004a02a54c       0x2c drivers/net/built-in.o
 .text.designware_eth_write_hwaddr
                0x000000004a02a578       0x60 drivers/net/built-in.o
                0x000000004a02a578                designware_eth_write_hwaddr
 .text.designware_eth_init
                0x000000004a02a5d8      0x2a8 drivers/net/built-in.o
                0x000000004a02a5d8                designware_eth_init
 .text.designware_eth_enable
                0x000000004a02a880       0x3c drivers/net/built-in.o
                0x000000004a02a880                designware_eth_enable
 .text.designware_eth_start
                0x000000004a02a8bc       0x38 drivers/net/built-in.o
 .text.genphy_shutdown
                0x000000004a02a8f4        0x8 drivers/net/phy/built-in.o
                0x000000004a02a8f4                genphy_shutdown
 .text.genphy_restart_aneg
                0x000000004a02a8fc       0x5c drivers/net/phy/built-in.o
                0x000000004a02a8fc                genphy_restart_aneg
 .text.genphy_config_aneg
                0x000000004a02a958      0x200 drivers/net/phy/built-in.o
                0x000000004a02a958                genphy_config_aneg
 .text.genphy_config
                0x000000004a02ab58       0xc4 drivers/net/phy/built-in.o
                0x000000004a02ab58                genphy_config
 .text.genphy_update_link
                0x000000004a02ac1c      0x14c drivers/net/phy/built-in.o
                0x000000004a02ac1c                genphy_update_link
 .text.genphy_parse_link
                0x000000004a02ad68      0x198 drivers/net/phy/built-in.o
                0x000000004a02ad68                genphy_parse_link
 .text.genphy_startup
                0x000000004a02af00       0x20 drivers/net/phy/built-in.o
                0x000000004a02af00                genphy_startup
 .text.phy_init
                0x000000004a02af20       0x10 drivers/net/phy/built-in.o
                0x000000004a02af20                phy_init
 .text.phy_register
                0x000000004a02af30       0x28 drivers/net/phy/built-in.o
                0x000000004a02af30                phy_register
 .text.phy_set_supported
                0x000000004a02af58       0x5c drivers/net/phy/built-in.o
                0x000000004a02af58                phy_set_supported
 .text.get_phy_id
                0x000000004a02afb4       0x70 drivers/net/phy/built-in.o
                0x000000004a02afb4                get_phy_id
 .text.get_phy_device_by_mask
                0x000000004a02b024      0x29c drivers/net/phy/built-in.o
 .text.phy_reset
                0x000000004a02b2c0       0xb8 drivers/net/phy/built-in.o
                0x000000004a02b2c0                phy_reset
 .text.phy_find_by_mask
                0x000000004a02b378       0x3c drivers/net/phy/built-in.o
                0x000000004a02b378                phy_find_by_mask
 .text.phy_connect_dev
                0x000000004a02b3b4       0x50 drivers/net/phy/built-in.o
                0x000000004a02b3b4                phy_connect_dev
 .text.phy_startup
                0x000000004a02b404       0x1c drivers/net/phy/built-in.o
                0x000000004a02b404                phy_startup
 .text.board_phy_config
                0x000000004a02b420       0x1c drivers/net/phy/built-in.o
                0x000000004a02b420                board_phy_config
 .text.phy_config
                0x000000004a02b43c        0x4 drivers/net/phy/built-in.o
                0x000000004a02b43c                phy_config
 .text.phy_shutdown
                0x000000004a02b440       0x28 drivers/net/phy/built-in.o
                0x000000004a02b440                phy_shutdown
 .text.phy_get_interface_by_name
                0x000000004a02b468       0x44 drivers/net/phy/built-in.o
                0x000000004a02b468                phy_get_interface_by_name
 .text.rtl8211b_probe
                0x000000004a02b4ac        0x8 drivers/net/phy/built-in.o
 .text.rtl8211x_startup
                0x000000004a02b4b4      0x11c drivers/net/phy/built-in.o
 .text.rtl8211f_startup
                0x000000004a02b5d0      0x108 drivers/net/phy/built-in.o
 .text.rtl8211x_config
                0x000000004a02b6d8       0xc0 drivers/net/phy/built-in.o
 .text.rtl8211f_config
                0x000000004a02b798      0x124 drivers/net/phy/built-in.o
 .text.rtl8211e_startup
                0x000000004a02b8bc       0x20 drivers/net/phy/built-in.o
 .text.phy_realtek_init
                0x000000004a02b8dc       0x3c drivers/net/phy/built-in.o
                0x000000004a02b8dc                phy_realtek_init
 .text.do_poweroff
                0x000000004a02b918       0x14 drivers/power/built-in.o
                0x000000004a02b918                do_poweroff
 .text._serial_putc
                0x000000004a02b92c       0x40 drivers/serial/built-in.o
 .text._serial_getc
                0x000000004a02b96c       0x2c drivers/serial/built-in.o
 .text._serial_tstc
                0x000000004a02b998       0x24 drivers/serial/built-in.o
 .text.serial_stub_putc
                0x000000004a02b9bc        0x8 drivers/serial/built-in.o
 .text.serial_stub_getc
                0x000000004a02b9c4        0x8 drivers/serial/built-in.o
                0x000000004a02b9c4                serial_stub_getc
 .text.serial_stub_tstc
                0x000000004a02b9cc        0x8 drivers/serial/built-in.o
                0x000000004a02b9cc                serial_stub_tstc
 .text.serial_pre_remove
                0x000000004a02b9d4       0x24 drivers/serial/built-in.o
 .text.serial_post_probe
                0x000000004a02b9f8       0xc0 drivers/serial/built-in.o
 .text.serial_stub_puts
                0x000000004a02bab8       0x28 drivers/serial/built-in.o
                0x000000004a02bab8                serial_stub_puts
 .text.serial_init
                0x000000004a02bae0      0x160 drivers/serial/built-in.o
                0x000000004a02bae0                serial_init
 .text.serial_initialize
                0x000000004a02bc40        0x4 drivers/serial/built-in.o
                0x000000004a02bc40                serial_initialize
 .text.serial_putc
                0x000000004a02bc44       0x18 drivers/serial/built-in.o
                0x000000004a02bc44                serial_putc
 .text.serial_puts
                0x000000004a02bc5c       0x34 drivers/serial/built-in.o
                0x000000004a02bc5c                serial_puts
 .text.serial_getc
                0x000000004a02bc90       0x14 drivers/serial/built-in.o
                0x000000004a02bc90                serial_getc
 .text.serial_tstc
                0x000000004a02bca4       0x14 drivers/serial/built-in.o
                0x000000004a02bca4                serial_tstc
 .text.serial_setbrg
                0x000000004a02bcb8       0x30 drivers/serial/built-in.o
                0x000000004a02bcb8                serial_setbrg
 .text.on_baudrate
                0x000000004a02bce8       0xec drivers/serial/built-in.o
 .text.serial_stdio_init
                0x000000004a02bdd4        0x4 drivers/serial/built-in.o
                0x000000004a02bdd4                serial_stdio_init
 .text.ns16550_serial_ofdata_to_platdata
                0x000000004a02bdd8       0xb8 drivers/serial/built-in.o
                0x000000004a02bdd8                ns16550_serial_ofdata_to_platdata
 .text.ns16550_writeb.isra.0
                0x000000004a02be90       0x1c drivers/serial/built-in.o
 .text.NS16550_setbrg
                0x000000004a02beac       0x50 drivers/serial/built-in.o
 .text.ns16550_serial_setbrg
                0x000000004a02befc       0x38 drivers/serial/built-in.o
 .text.ns16550_readb.isra.1
                0x000000004a02bf34       0x20 drivers/serial/built-in.o
 .text.ns16550_serial_pending
                0x000000004a02bf54       0x3c drivers/serial/built-in.o
 .text.ns16550_serial_putc
                0x000000004a02bf90       0x44 drivers/serial/built-in.o
 .text.ns16550_serial_getc
                0x000000004a02bfd4       0x38 drivers/serial/built-in.o
 .text.NS16550_init
                0x000000004a02c00c       0x68 drivers/serial/built-in.o
                0x000000004a02c00c                NS16550_init
 .text.ns16550_serial_probe
                0x000000004a02c074       0x30 drivers/serial/built-in.o
                0x000000004a02c074                ns16550_serial_probe
 .text.usb_child_post_bind
                0x000000004a02c0a4       0x7c drivers/usb/host/built-in.o
                0x000000004a02c0a4                usb_child_post_bind
 .text.remove_inactive_children.isra.0
                0x000000004a02c120       0x74 drivers/usb/host/built-in.o
 .text.usb_disable_asynch
                0x000000004a02c194       0x20 drivers/usb/host/built-in.o
                0x000000004a02c194                usb_disable_asynch
 .text.submit_int_msg
                0x000000004a02c1b4       0x4c drivers/usb/host/built-in.o
                0x000000004a02c1b4                submit_int_msg
 .text.submit_control_msg
                0x000000004a02c200       0x8c drivers/usb/host/built-in.o
                0x000000004a02c200                submit_control_msg
 .text.submit_bulk_msg
                0x000000004a02c28c       0x44 drivers/usb/host/built-in.o
                0x000000004a02c28c                submit_bulk_msg
 .text.create_int_queue
                0x000000004a02c2d0       0x54 drivers/usb/host/built-in.o
                0x000000004a02c2d0                create_int_queue
 .text.poll_int_queue
                0x000000004a02c324       0x30 drivers/usb/host/built-in.o
                0x000000004a02c324                poll_int_queue
 .text.destroy_int_queue
                0x000000004a02c354       0x30 drivers/usb/host/built-in.o
                0x000000004a02c354                destroy_int_queue
 .text.usb_alloc_device
                0x000000004a02c384       0x28 drivers/usb/host/built-in.o
                0x000000004a02c384                usb_alloc_device
 .text.usb_reset_root_port
                0x000000004a02c3ac       0x28 drivers/usb/host/built-in.o
                0x000000004a02c3ac                usb_reset_root_port
 .text.usb_stop
                0x000000004a02c3d4       0x98 drivers/usb/host/built-in.o
                0x000000004a02c3d4                usb_stop
 .text.usb_match_device
                0x000000004a02c46c       0xe8 drivers/usb/host/built-in.o
                0x000000004a02c46c                usb_match_device
 .text.usb_match_one_id_intf
                0x000000004a02c554       0x98 drivers/usb/host/built-in.o
                0x000000004a02c554                usb_match_one_id_intf
 .text.usb_match_one_id
                0x000000004a02c5ec       0x34 drivers/usb/host/built-in.o
                0x000000004a02c5ec                usb_match_one_id
 .text.usb_get_bus
                0x000000004a02c620       0x2c drivers/usb/host/built-in.o
                0x000000004a02c620                usb_get_bus
 .text.usb_scan_device
                0x000000004a02c64c      0x274 drivers/usb/host/built-in.o
                0x000000004a02c64c                usb_scan_device
 .text.usb_scan_bus.isra.1
                0x000000004a02c8c0       0x74 drivers/usb/host/built-in.o
 .text.usb_init
                0x000000004a02c934      0x1d0 drivers/usb/host/built-in.o
                0x000000004a02c934                usb_init
 .text.usb_child_pre_probe
                0x000000004a02cb04       0x68 drivers/usb/host/built-in.o
                0x000000004a02cb04                usb_child_pre_probe
 .text.ep_rev   0x000000004a02cb6c       0x38 drivers/usb/host/built-in.o
 .text.urb_free_priv
                0x000000004a02cba4       0x40 drivers/usb/host/built-in.o
 .text.ohci_get_ohci_dev
                0x000000004a02cbe4       0x98 drivers/usb/host/built-in.o
 .text.td_fill.isra.2
                0x000000004a02cc7c       0xe0 drivers/usb/host/built-in.o
 .text.ohci_destroy_int_queue
                0x000000004a02cd5c       0x44 drivers/usb/host/built-in.o
 .text.hc_reset
                0x000000004a02cda0       0xe8 drivers/usb/host/built-in.o
 .text.hc_interrupt
                0x000000004a02ce88      0x5d4 drivers/usb/host/built-in.o
 .text.ohci_poll_int_queue
                0x000000004a02d45c       0x5c drivers/usb/host/built-in.o
 .text.sohci_submit_job
                0x000000004a02d4b8      0x86c drivers/usb/host/built-in.o
                0x000000004a02d4b8                sohci_submit_job
 .text.ohci_create_int_queue
                0x000000004a02dd24      0x134 drivers/usb/host/built-in.o
 .text.submit_common_msg
                0x000000004a02de58      0x18c drivers/usb/host/built-in.o
 .text.ohci_submit_int_msg
                0x000000004a02dfe4       0x48 drivers/usb/host/built-in.o
 .text.ohci_submit_bulk_msg
                0x000000004a02e02c       0x44 drivers/usb/host/built-in.o
 .text.ohci_submit_control_msg
                0x000000004a02e070      0x5a0 drivers/usb/host/built-in.o
 .text.ohci_register
                0x000000004a02e610      0x184 drivers/usb/host/built-in.o
                0x000000004a02e610                ohci_register
 .text.ohci_deregister
                0x000000004a02e794       0x34 drivers/usb/host/built-in.o
                0x000000004a02e794                ohci_deregister
 .text.ohci_usb_remove
                0x000000004a02e7c8       0x5c drivers/usb/host/built-in.o
 .text.ohci_usb_probe
                0x000000004a02e824       0xa8 drivers/usb/host/built-in.o
 .text.ehci_get_port_speed
                0x000000004a02e8cc        0x8 drivers/usb/host/built-in.o
 .text.ehci_set_usbmode
                0x000000004a02e8d4       0x18 drivers/usb/host/built-in.o
 .text.ehci_get_portsc_register
                0x000000004a02e8ec       0x14 drivers/usb/host/built-in.o
 .text.ehci_powerup_fixup
                0x000000004a02e900       0x20 drivers/usb/host/built-in.o
 .text.handshake
                0x000000004a02e920       0x50 drivers/usb/host/built-in.o
 .text.ehci_td_buffer
                0x000000004a02e970       0x80 drivers/usb/host/built-in.o
 .text.ehci_shutdown
                0x000000004a02e9f0       0xa0 drivers/usb/host/built-in.o
 .text._ehci_poll_int_queue
                0x000000004a02ea90       0xbc drivers/usb/host/built-in.o
 .text.ehci_poll_int_queue
                0x000000004a02eb4c        0xc drivers/usb/host/built-in.o
 .text.disable_periodic.isra.1
                0x000000004a02eb58       0x48 drivers/usb/host/built-in.o
 .text.enable_periodic.isra.2
                0x000000004a02eba0       0x50 drivers/usb/host/built-in.o
 .text.ehci_get_ctrl.isra.3
                0x000000004a02ebf0       0x10 drivers/usb/host/built-in.o
 .text._ehci_destroy_int_queue
                0x000000004a02ec00       0xe4 drivers/usb/host/built-in.o
 .text.ehci_destroy_int_queue
                0x000000004a02ece4        0xc drivers/usb/host/built-in.o
 .text.ehci_update_endpt2_dev_n_port.isra.4
                0x000000004a02ecf0       0x5c drivers/usb/host/built-in.o
 .text.ehci_submit_async
                0x000000004a02ed4c      0x5a0 drivers/usb/host/built-in.o
 .text.ehci_submit_bulk_msg
                0x000000004a02f2ec       0x30 drivers/usb/host/built-in.o
 .text._ehci_create_int_queue.isra.5
                0x000000004a02f31c      0x3a8 drivers/usb/host/built-in.o
 .text.ehci_create_int_queue
                0x000000004a02f6c4       0x18 drivers/usb/host/built-in.o
 .text.ehci_submit_int_msg
                0x000000004a02f6dc       0xb0 drivers/usb/host/built-in.o
 .text.ehci_submit_control_msg
                0x000000004a02f78c      0x53c drivers/usb/host/built-in.o
 .text.ehci_register
                0x000000004a02fcc8      0x31c drivers/usb/host/built-in.o
                0x000000004a02fcc8                ehci_register
 .text.ehci_deregister
                0x000000004a02ffe4       0x20 drivers/usb/host/built-in.o
                0x000000004a02ffe4                ehci_deregister
 .text.ehci_usb_remove
                0x000000004a030004       0x48 drivers/usb/host/built-in.o
 .text.ehci_usb_probe
                0x000000004a03004c       0x9c drivers/usb/host/built-in.o
 .text.fs_probe_unsupported
                0x000000004a0300e8       0x18 fs/built-in.o
 .text.fs_exists_unsupported
                0x000000004a030100        0x8 fs/built-in.o
 .text.fs_size_unsupported
                0x000000004a030108        0x8 fs/built-in.o
 .text.fs_write_unsupported
                0x000000004a030110        0x8 fs/built-in.o
 .text.fs_close_unsupported
                0x000000004a030118        0x4 fs/built-in.o
 .text.fs_uuid_unsupported
                0x000000004a03011c        0x8 fs/built-in.o
 .text.fs_get_info
                0x000000004a030124       0x34 fs/built-in.o
 .text.fs_close
                0x000000004a030158       0x28 fs/built-in.o
 .text.fs_read_unsupported
                0x000000004a030180        0x8 fs/built-in.o
 .text.fs_ls_unsupported
                0x000000004a030188        0x8 fs/built-in.o
 .text.fs_set_blk_dev
                0x000000004a030190       0xb4 fs/built-in.o
                0x000000004a030190                fs_set_blk_dev
 .text.fs_ls    0x000000004a030244       0x3c fs/built-in.o
                0x000000004a030244                fs_ls
 .text.fs_exists
                0x000000004a030280       0x34 fs/built-in.o
                0x000000004a030280                fs_exists
 .text.fs_size  0x000000004a0302b4       0x3c fs/built-in.o
                0x000000004a0302b4                fs_size
 .text.fs_read  0x000000004a0302f0       0xa0 fs/built-in.o
                0x000000004a0302f0                fs_read
 .text.fs_write
                0x000000004a030390       0x90 fs/built-in.o
                0x000000004a030390                fs_write
 .text.do_size  0x000000004a030420       0x60 fs/built-in.o
                0x000000004a030420                do_size
 .text.do_load  0x000000004a030480      0x244 fs/built-in.o
                0x000000004a030480                do_load
 .text.do_ls    0x000000004a0306c4       0x68 fs/built-in.o
                0x000000004a0306c4                do_ls
 .text.file_exists
                0x000000004a03072c       0x2c fs/built-in.o
                0x000000004a03072c                file_exists
 .text.do_save  0x000000004a030758      0x17c fs/built-in.o
                0x000000004a030758                do_save
 .text.do_fs_type
                0x000000004a0308d4       0x70 fs/built-in.o
                0x000000004a0308d4                do_fs_type
 .text.get_fs   0x000000004a030944        0xc fs/built-in.o
                0x000000004a030944                get_fs
 .text.ext4fs_free_node
                0x000000004a030950       0x20 fs/built-in.o
                0x000000004a030950                ext4fs_free_node
 .text.ext4fs_read_file
                0x000000004a030970      0x404 fs/built-in.o
                0x000000004a030970                ext4fs_read_file
 .text.ext4fs_ls
                0x000000004a030d74       0x78 fs/built-in.o
                0x000000004a030d74                ext4fs_ls
 .text.ext4fs_exists
                0x000000004a030dec       0x1c fs/built-in.o
                0x000000004a030dec                ext4fs_exists
 .text.ext4fs_size
                0x000000004a030e08        0x4 fs/built-in.o
                0x000000004a030e08                ext4fs_size
 .text.ext4fs_read
                0x000000004a030e0c       0x5c fs/built-in.o
                0x000000004a030e0c                ext4fs_read
 .text.ext4fs_probe
                0x000000004a030e68       0x30 fs/built-in.o
                0x000000004a030e68                ext4fs_probe
 .text.ext4_read_file
                0x000000004a030e98       0x70 fs/built-in.o
                0x000000004a030e98                ext4_read_file
 .text.ext4fs_uuid
                0x000000004a030f08       0x38 fs/built-in.o
                0x000000004a030f08                ext4fs_uuid
 .text.ext4fs_bg_get_inode_table_id
                0x000000004a030f40       0x40 fs/built-in.o
                0x000000004a030f40                ext4fs_bg_get_inode_table_id
 .text.ext4fs_read_inode
                0x000000004a030f80      0x164 fs/built-in.o
                0x000000004a030f80                ext4fs_read_inode
 .text.read_allocated_block
                0x000000004a0310e4      0x938 fs/built-in.o
                0x000000004a0310e4                read_allocated_block
 .text.ext4fs_reinit_global
                0x000000004a031a1c       0xbc fs/built-in.o
                0x000000004a031a1c                ext4fs_reinit_global
 .text.ext4fs_close
                0x000000004a031ad8       0x60 fs/built-in.o
                0x000000004a031ad8                ext4fs_close
 .text.ext4fs_iterate_dir
                0x000000004a031b38      0x2dc fs/built-in.o
                0x000000004a031b38                ext4fs_iterate_dir
 .text.ext4fs_find_file1
                0x000000004a031e14      0x2bc fs/built-in.o
 .text.ext4fs_find_file
                0x000000004a0320d0       0x78 fs/built-in.o
                0x000000004a0320d0                ext4fs_find_file
 .text.ext4fs_open
                0x000000004a032148       0xac fs/built-in.o
                0x000000004a032148                ext4fs_open
 .text.ext4fs_mount
                0x000000004a0321f4       0xe4 fs/built-in.o
                0x000000004a0321f4                ext4fs_mount
 .text.ext4fs_set_blk_dev
                0x000000004a0322d8       0x78 fs/built-in.o
                0x000000004a0322d8                ext4fs_set_blk_dev
 .text.ext4fs_devread
                0x000000004a032350      0x300 fs/built-in.o
                0x000000004a032350                ext4fs_devread
 .text.ext4_read_superblock
                0x000000004a032650       0x44 fs/built-in.o
                0x000000004a032650                ext4_read_superblock
 .text.downcase
                0x000000004a032694       0x30 fs/built-in.o
 .text.disk_read
                0x000000004a0326c4       0x74 fs/built-in.o
 .text.dirdelim
                0x000000004a032738       0x38 fs/built-in.o
 .text.mkcksum  0x000000004a032770       0x50 fs/built-in.o
 .text.disk_write
                0x000000004a0327c0       0xb8 fs/built-in.o
 .text.flush_dirty_fat_buffer
                0x000000004a032878       0xa8 fs/built-in.o
 .text.set_fatent_value
                0x000000004a032920      0x1c0 fs/built-in.o
 .text.get_fatent
                0x000000004a032ae0      0x178 fs/built-in.o
 .text.find_empty_cluster
                0x000000004a032c58       0x2c fs/built-in.o
 .text.get_cluster
                0x000000004a032c84      0x170 fs/built-in.o
 .text.get_name
                0x000000004a032df4       0xac fs/built-in.o
 .text.set_cluster
                0x000000004a032ea0      0x168 fs/built-in.o
 .text.read_bootsectandvi
                0x000000004a033008      0x128 fs/built-in.o
 .text.set_name
                0x000000004a033130      0x154 fs/built-in.o
 .text.check_overflow
                0x000000004a033284       0xb4 fs/built-in.o
 .text.slot2str
                0x000000004a033338       0xbc fs/built-in.o
 .text.get_vfatname
                0x000000004a0333f4      0x1b8 fs/built-in.o
 .text.flush_dir_table.constprop.8
                0x000000004a0335ac       0xd4 fs/built-in.o
 .text.do_fat_write
                0x000000004a033680      0xc24 fs/built-in.o
 .text.fat_set_blk_dev
                0x000000004a0342a4       0xcc fs/built-in.o
                0x000000004a0342a4                fat_set_blk_dev
 .text.do_fat_read_at
                0x000000004a034370      0xcac fs/built-in.o
                0x000000004a034370                do_fat_read_at
 .text.do_fat_read
                0x000000004a03501c       0x3c fs/built-in.o
                0x000000004a03501c                do_fat_read
 .text.file_fat_detectfs
                0x000000004a035058      0x148 fs/built-in.o
                0x000000004a035058                file_fat_detectfs
 .text.file_fat_ls
                0x000000004a0351a0       0x2c fs/built-in.o
                0x000000004a0351a0                file_fat_ls
 .text.fat_exists
                0x000000004a0351cc       0x44 fs/built-in.o
                0x000000004a0351cc                fat_exists
 .text.fat_size
                0x000000004a035210       0x38 fs/built-in.o
                0x000000004a035210                fat_size
 .text.file_fat_read_at
                0x000000004a035248       0x60 fs/built-in.o
                0x000000004a035248                file_fat_read_at
 .text.fat_read_file
                0x000000004a0352a8       0x48 fs/built-in.o
                0x000000004a0352a8                fat_read_file
 .text.fat_close
                0x000000004a0352f0        0x4 fs/built-in.o
                0x000000004a0352f0                fat_close
 .text.file_fat_write
                0x000000004a0352f4       0x5c fs/built-in.o
                0x000000004a0352f4                file_fat_write
 .text.efi_return_handle
                0x000000004a035350        0xc lib/built-in.o
                0x000000004a035350                efi_return_handle
 .text.efi_load_pe
                0x000000004a03535c      0x2bc lib/built-in.o
                0x000000004a03535c                efi_load_pe
 .text.efi_search.isra.0.part.1
                0x000000004a035618       0x48 lib/built-in.o
 .text.efi_save_gd
                0x000000004a035660       0x10 lib/built-in.o
                0x000000004a035660                efi_save_gd
 .text.efi_restore_gd
                0x000000004a035670       0x2c lib/built-in.o
                0x000000004a035670                efi_restore_gd
 .text.efi_set_mem
                0x000000004a03569c       0x20 lib/built-in.o
 .text.efi_copy_mem
                0x000000004a0356bc       0x18 lib/built-in.o
 .text.efi_exit
                0x000000004a0356d4       0x30 lib/built-in.o
 .text.efi_allocate_pages_ext
                0x000000004a035704       0x2c lib/built-in.o
                0x000000004a035704                efi_allocate_pages_ext
 .text.efi_free_pages_ext
                0x000000004a035730       0x28 lib/built-in.o
                0x000000004a035730                efi_free_pages_ext
 .text.efi_get_memory_map_ext
                0x000000004a035758       0x38 lib/built-in.o
                0x000000004a035758                efi_get_memory_map_ext
 .text.efi_calculate_crc32
                0x000000004a035790       0x38 lib/built-in.o
 .text.efi_uninstall_multiple_protocol_interfaces
                0x000000004a0357c8       0x28 lib/built-in.o
 .text.efi_install_multiple_protocol_interfaces
                0x000000004a0357f0       0x28 lib/built-in.o
 .text.efi_locate_protocol
                0x000000004a035818       0x44 lib/built-in.o
 .text.efi_locate_handle_buffer
                0x000000004a03585c       0x1c lib/built-in.o
 .text.efi_protocols_per_handle
                0x000000004a035878       0x1c lib/built-in.o
 .text.efi_open_protocol_information
                0x000000004a035894       0x1c lib/built-in.o
 .text.efi_open_protocol
                0x000000004a0358b0       0xc4 lib/built-in.o
 .text.efi_handle_protocol
                0x000000004a035974       0x1c lib/built-in.o
 .text.efi_disconnect_controller
                0x000000004a035990       0x1c lib/built-in.o
 .text.efi_connect_controller
                0x000000004a0359ac       0x1c lib/built-in.o
 .text.efi_set_watchdog_timer
                0x000000004a0359c8       0x1c lib/built-in.o
 .text.efi_stall
                0x000000004a0359e4       0x20 lib/built-in.o
 .text.efi_get_next_monotonic_count
                0x000000004a035a04       0x38 lib/built-in.o
 .text.efi_exit_boot_services
                0x000000004a035a3c       0x3c lib/built-in.o
 .text.efi_unload_image
                0x000000004a035a78       0x5c lib/built-in.o
 .text.efi_start_image
                0x000000004a035ad4       0x74 lib/built-in.o
 .text.efi_load_image
                0x000000004a035b48       0xc0 lib/built-in.o
 .text.efi_locate_device_path
                0x000000004a035c08       0x1c lib/built-in.o
 .text.efi_locate_handle
                0x000000004a035c24       0xdc lib/built-in.o
 .text.efi_reinstall_protocol_interface
                0x000000004a035d00       0x1c lib/built-in.o
 .text.efi_install_protocol_interface
                0x000000004a035d1c       0x1c lib/built-in.o
 .text.efi_check_event
                0x000000004a035d38       0x1c lib/built-in.o
 .text.efi_close_event
                0x000000004a035d54       0x30 lib/built-in.o
 .text.efi_signal_event
                0x000000004a035d84       0x1c lib/built-in.o
 .text.efi_set_timer
                0x000000004a035da0       0xc0 lib/built-in.o
 .text.efi_create_event
                0x000000004a035e60       0x54 lib/built-in.o
 .text.efi_free_pool_ext
                0x000000004a035eb4       0x1c lib/built-in.o
 .text.efi_allocate_pool_ext
                0x000000004a035ed0       0x24 lib/built-in.o
 .text.efi_restore_tpl
                0x000000004a035ef4       0x18 lib/built-in.o
 .text.efi_raise_tpl
                0x000000004a035f0c       0x1c lib/built-in.o
 .text.efi_close_protocol
                0x000000004a035f28       0x1c lib/built-in.o
 .text.efi_uninstall_protocol_interface
                0x000000004a035f44       0x1c lib/built-in.o
 .text.efi_register_protocol_notify
                0x000000004a035f60       0x1c lib/built-in.o
 .text.efi_exit_func
                0x000000004a035f7c       0x10 lib/built-in.o
                0x000000004a035f7c                efi_exit_func
 .text.efi_timer_check
                0x000000004a035f8c       0x64 lib/built-in.o
                0x000000004a035f8c                efi_timer_check
 .text.efi_wait_for_event
                0x000000004a035ff0       0x40 lib/built-in.o
 .text.efi_install_configuration_table
                0x000000004a036030       0xa4 lib/built-in.o
                0x000000004a036030                efi_install_configuration_table
 .text.efi_install_configuration_table_ext
                0x000000004a0360d4       0x24 lib/built-in.o
 .text.efi_get_time_boottime
                0x000000004a0360f8        0x8 lib/built-in.o
 .text.efi_reset_system_boottime
                0x000000004a036100       0x2c lib/built-in.o
 .text.efi_reset_system_init
                0x000000004a03612c        0x4 lib/built-in.o
                0x000000004a03612c                efi_reset_system_init
 .text.efi_get_time_init
                0x000000004a036130        0x4 lib/built-in.o
                0x000000004a036130                efi_get_time_init
 .text.efi_runtime_relocate
                0x000000004a036134      0x128 lib/built-in.o
                0x000000004a036134                efi_runtime_relocate
 .text.efi_set_virtual_address_map
                0x000000004a03625c      0x184 lib/built-in.o
 .text.efi_cin_lock_std_in
                0x000000004a0363e0       0x14 lib/built-in.o
 .text.efi_cin_set_mode
                0x000000004a0363f4       0x14 lib/built-in.o
 .text.efi_cin_get_mode
                0x000000004a036408       0x44 lib/built-in.o
 .text.efi_cout_set_attribute
                0x000000004a03644c       0x14 lib/built-in.o
 .text.efi_cout_test_string
                0x000000004a036460       0x14 lib/built-in.o
 .text.efi_cout_reset
                0x000000004a036474       0x14 lib/built-in.o
 .text.efi_cin_reset
                0x000000004a036488       0x14 lib/built-in.o
 .text.efi_cout_enable_cursor
                0x000000004a03649c       0x30 lib/built-in.o
 .text.efi_cout_set_cursor_position
                0x000000004a0364cc       0x40 lib/built-in.o
 .text.efi_cout_clear_screen
                0x000000004a03650c       0x20 lib/built-in.o
 .text.efi_cout_output_string
                0x000000004a03652c       0xf8 lib/built-in.o
 .text.efi_cout_set_mode
                0x000000004a036624       0x38 lib/built-in.o
 .text.efi_cin_read_key_stroke
                0x000000004a03665c      0x120 lib/built-in.o
 .text.efi_cout_query_mode
                0x000000004a03677c      0x21c lib/built-in.o
 .text.efi_mem_cmp
                0x000000004a036998       0x30 lib/built-in.o
 .text.efi_find_free_memory
                0x000000004a0369c8       0xd4 lib/built-in.o
 .text.efi_add_memory_map
                0x000000004a036a9c      0x350 lib/built-in.o
                0x000000004a036a9c                efi_add_memory_map
 .text.efi_allocate_pages
                0x000000004a036dec       0xa8 lib/built-in.o
                0x000000004a036dec                efi_allocate_pages
 .text.efi_alloc
                0x000000004a036e94       0x54 lib/built-in.o
                0x000000004a036e94                efi_alloc
 .text.efi_free_pages
                0x000000004a036ee8       0x38 lib/built-in.o
                0x000000004a036ee8                efi_free_pages
 .text.efi_allocate_pool
                0x000000004a036f20       0x5c lib/built-in.o
                0x000000004a036f20                efi_allocate_pool
 .text.efi_free_pool
                0x000000004a036f7c       0x10 lib/built-in.o
                0x000000004a036f7c                efi_free_pool
 .text.efi_get_memory_map
                0x000000004a036f8c       0xac lib/built-in.o
                0x000000004a036f8c                efi_get_memory_map
 .text.efi_add_known_memory
                0x000000004a037038       0x64 lib/built-in.o
                0x000000004a037038                efi_add_known_memory
 .text.efi_memory_init
                0x000000004a03709c       0x88 lib/built-in.o
                0x000000004a03709c                efi_memory_init
 .text.efi_disk_open_block
                0x000000004a037124       0x10 lib/built-in.o
 .text.efi_disk_open_dp
                0x000000004a037134       0x10 lib/built-in.o
 .text.efi_disk_flush_blocks
                0x000000004a037144       0x14 lib/built-in.o
 .text.efi_disk_reset
                0x000000004a037158       0x14 lib/built-in.o
 .text.efi_disk_add_dev.part.0
                0x000000004a03716c      0x14c lib/built-in.o
 .text.efi_disk_read_blocks
                0x000000004a0372b8       0x98 lib/built-in.o
 .text.efi_disk_write_blocks
                0x000000004a037350       0x98 lib/built-in.o
 .text.efi_disk_register
                0x000000004a0373e8      0x174 lib/built-in.o
                0x000000004a0373e8                efi_disk_register
 .text.efi_net_push
                0x000000004a03755c       0x14 lib/built-in.o
 .text.efi_net_open_dp
                0x000000004a037570       0x10 lib/built-in.o
 .text.efi_net_open_pxe
                0x000000004a037580       0x10 lib/built-in.o
 .text.efi_net_get_status
                0x000000004a037590       0x40 lib/built-in.o
 .text.efi_net_nvdata
                0x000000004a0375d0       0x14 lib/built-in.o
 .text.efi_net_mcastiptomac
                0x000000004a0375e4       0x14 lib/built-in.o
 .text.efi_net_station_address
                0x000000004a0375f8       0x14 lib/built-in.o
 .text.efi_net_receive_filters
                0x000000004a03760c       0x14 lib/built-in.o
 .text.efi_net_shutdown
                0x000000004a037620       0x14 lib/built-in.o
 .text.efi_net_stop
                0x000000004a037634        0x4 lib/built-in.o
 .text.efi_net_start
                0x000000004a037638        0x4 lib/built-in.o
 .text.efi_net_reset
                0x000000004a03763c       0x14 lib/built-in.o
 .text.efi_net_initialize
                0x000000004a037650       0x18 lib/built-in.o
 .text.efi_net_receive
                0x000000004a037668       0x94 lib/built-in.o
 .text.efi_net_transmit
                0x000000004a0376fc       0x44 lib/built-in.o
 .text.efi_net_statistics
                0x000000004a037740       0x14 lib/built-in.o
 .text.efi_net_set_dhcp_ack
                0x000000004a037754       0x48 lib/built-in.o
                0x000000004a037754                efi_net_set_dhcp_ack
 .text.efi_net_register
                0x000000004a03779c      0x238 lib/built-in.o
                0x000000004a03779c                efi_net_register
 .text.efi_smbios_register
                0x000000004a0379d4       0x4c lib/built-in.o
                0x000000004a0379d4                efi_smbios_register
 .text.zcalloc  0x000000004a037a20        0x8 lib/built-in.o
                0x000000004a037a20                zcalloc
 .text.zcfree   0x000000004a037a28        0x8 lib/built-in.o
                0x000000004a037a28                zcfree
 .text.inflate_fast
                0x000000004a037a30      0x594 lib/built-in.o
                0x000000004a037a30                inflate_fast
 .text.inflate_table
                0x000000004a037fc4      0x530 lib/built-in.o
                0x000000004a037fc4                inflate_table
 .text.inflateReset
                0x000000004a0384f4       0x78 lib/built-in.o
                0x000000004a0384f4                inflateReset
 .text.inflateInit2_
                0x000000004a03856c      0x104 lib/built-in.o
                0x000000004a03856c                inflateInit2_
 .text.inflateEnd
                0x000000004a038670       0x68 lib/built-in.o
                0x000000004a038670                inflateEnd
 .text.adler32  0x000000004a0386d8      0x334 lib/built-in.o
                0x000000004a0386d8                adler32
 .text.inflate  0x000000004a038a0c     0x14d8 lib/built-in.o
                0x000000004a038a0c                inflate
 .text.crc16_ccitt
                0x000000004a039ee4       0x3c lib/built-in.o
                0x000000004a039ee4                crc16_ccitt
 .text.gzalloc  0x000000004a039f20       0x10 lib/built-in.o
                0x000000004a039f20                gzalloc
 .text.gzfree   0x000000004a039f30        0x8 lib/built-in.o
                0x000000004a039f30                gzfree
 .text.zunzip   0x000000004a039f38      0x11c lib/built-in.o
                0x000000004a039f38                zunzip
 .text.gunzip   0x000000004a03a054       0xb8 lib/built-in.o
                0x000000004a03a054                gunzip
 .text.smbios_write_type127
                0x000000004a03a10c       0x54 lib/built-in.o
 .text.smbios_write_type32
                0x000000004a03a160       0x54 lib/built-in.o
 .text.smbios_string_table_len
                0x000000004a03a1b4       0x38 lib/built-in.o
 .text.smbios_add_string
                0x000000004a03a1ec       0x6c lib/built-in.o
 .text.smbios_write_type3
                0x000000004a03a258       0x8c lib/built-in.o
 .text.smbios_write_type2
                0x000000004a03a2e4       0x9c lib/built-in.o
 .text.smbios_write_type0
                0x000000004a03a380       0xf4 lib/built-in.o
 .text.smbios_write_type1
                0x000000004a03a474       0xc4 lib/built-in.o
 .text.smbios_write_type4
                0x000000004a03a538       0xd8 lib/built-in.o
 .text.write_smbios_table
                0x000000004a03a610      0x11c lib/built-in.o
                0x000000004a03a610                write_smbios_table
 .text.initcall_run_list
                0x000000004a03a72c       0x60 lib/built-in.o
                0x000000004a03a72c                initcall_run_list
 .text.lmb_add_region
                0x000000004a03a78c      0x18c lib/built-in.o
 .text.lmb_init
                0x000000004a03a918       0x28 lib/built-in.o
                0x000000004a03a918                lmb_init
 .text.lmb_add  0x000000004a03a940        0x4 lib/built-in.o
                0x000000004a03a940                lmb_add
 .text.lmb_free
                0x000000004a03a944      0x100 lib/built-in.o
                0x000000004a03a944                lmb_free
 .text.lmb_reserve
                0x000000004a03aa44        0x8 lib/built-in.o
                0x000000004a03aa44                lmb_reserve
 .text.__lmb_alloc_base
                0x000000004a03aa4c      0x124 lib/built-in.o
                0x000000004a03aa4c                __lmb_alloc_base
 .text.lmb_alloc_base
                0x000000004a03ab70       0x34 lib/built-in.o
                0x000000004a03ab70                lmb_alloc_base
 .text.lmb_alloc
                0x000000004a03aba4        0x8 lib/built-in.o
                0x000000004a03aba4                lmb_alloc
 .text.board_lmb_reserve
                0x000000004a03abac        0x4 lib/built-in.o
                0x000000004a03abac                board_lmb_reserve
 .text.string_to_ip
                0x000000004a03abb0       0x90 lib/built-in.o
                0x000000004a03abb0                string_to_ip
 .text.qsort    0x000000004a03ac40       0xe0 lib/built-in.o
                0x000000004a03ac40                qsort
 .text.strcmp_compar
                0x000000004a03ad20        0xc lib/built-in.o
                0x000000004a03ad20                strcmp_compar
 .text.merge    0x000000004a03ad2c       0x68 lib/built-in.o
 .text.list_sort
                0x000000004a03ad94      0x194 lib/built-in.o
                0x000000004a03ad94                list_sort
 .text.fdt_check_header
                0x000000004a03af28       0x74 lib/built-in.o
                0x000000004a03af28                fdt_check_header
 .text.fdt_offset_ptr
                0x000000004a03af9c       0x6c lib/built-in.o
                0x000000004a03af9c                fdt_offset_ptr
 .text.fdt_next_tag
                0x000000004a03b008       0xfc lib/built-in.o
                0x000000004a03b008                fdt_next_tag
 .text._fdt_check_node_offset
                0x000000004a03b104       0x3c lib/built-in.o
                0x000000004a03b104                _fdt_check_node_offset
 .text._fdt_check_prop_offset
                0x000000004a03b140       0x3c lib/built-in.o
                0x000000004a03b140                _fdt_check_prop_offset
 .text.fdt_next_node
                0x000000004a03b17c       0xb8 lib/built-in.o
                0x000000004a03b17c                fdt_next_node
 .text.fdt_first_subnode
                0x000000004a03b234       0x34 lib/built-in.o
                0x000000004a03b234                fdt_first_subnode
 .text.fdt_next_subnode
                0x000000004a03b268       0x50 lib/built-in.o
                0x000000004a03b268                fdt_next_subnode
 .text._fdt_find_string
                0x000000004a03b2b8       0x5c lib/built-in.o
                0x000000004a03b2b8                _fdt_find_string
 .text.fdt_move
                0x000000004a03b314       0x48 lib/built-in.o
                0x000000004a03b314                fdt_move
 .text.fdt_path_next_separator
                0x000000004a03b35c       0x50 lib/built-in.o
 .text._nextprop
                0x000000004a03b3ac       0x5c lib/built-in.o
 .text.fdt_string
                0x000000004a03b408       0x14 lib/built-in.o
                0x000000004a03b408                fdt_string
 .text.fdt_get_mem_rsv
                0x000000004a03b41c       0x60 lib/built-in.o
                0x000000004a03b41c                fdt_get_mem_rsv
 .text.fdt_num_mem_rsv
                0x000000004a03b47c       0x3c lib/built-in.o
                0x000000004a03b47c                fdt_num_mem_rsv
 .text.fdt_subnode_offset_namelen
                0x000000004a03b4b8       0xd8 lib/built-in.o
                0x000000004a03b4b8                fdt_subnode_offset_namelen
 .text.fdt_subnode_offset
                0x000000004a03b590       0x30 lib/built-in.o
                0x000000004a03b590                fdt_subnode_offset
 .text.fdt_get_name
                0x000000004a03b5c0       0x74 lib/built-in.o
                0x000000004a03b5c0                fdt_get_name
 .text.fdt_first_property_offset
                0x000000004a03b634       0x20 lib/built-in.o
                0x000000004a03b634                fdt_first_property_offset
 .text.fdt_next_property_offset
                0x000000004a03b654       0x20 lib/built-in.o
                0x000000004a03b654                fdt_next_property_offset
 .text.fdt_get_property_by_offset
                0x000000004a03b674       0x50 lib/built-in.o
                0x000000004a03b674                fdt_get_property_by_offset
 .text.fdt_get_property_namelen
                0x000000004a03b6c4       0xb8 lib/built-in.o
                0x000000004a03b6c4                fdt_get_property_namelen
 .text.fdt_get_property
                0x000000004a03b77c       0x3c lib/built-in.o
                0x000000004a03b77c                fdt_get_property
 .text.fdt_getprop_namelen
                0x000000004a03b7b8       0x20 lib/built-in.o
                0x000000004a03b7b8                fdt_getprop_namelen
 .text.fdt_getprop_by_offset
                0x000000004a03b7d8       0x48 lib/built-in.o
                0x000000004a03b7d8                fdt_getprop_by_offset
 .text.fdt_getprop
                0x000000004a03b820       0x3c lib/built-in.o
                0x000000004a03b820                fdt_getprop
 .text.fdt_get_phandle
                0x000000004a03b85c       0x70 lib/built-in.o
                0x000000004a03b85c                fdt_get_phandle
 .text.fdt_get_alias_namelen
                0x000000004a03b8cc       0x44 lib/built-in.o
                0x000000004a03b8cc                fdt_get_alias_namelen
 .text.fdt_path_offset_namelen
                0x000000004a03b910       0xf0 lib/built-in.o
                0x000000004a03b910                fdt_path_offset_namelen
 .text.fdt_path_offset
                0x000000004a03ba00       0x28 lib/built-in.o
                0x000000004a03ba00                fdt_path_offset
 .text.fdt_get_alias
                0x000000004a03ba28       0x28 lib/built-in.o
                0x000000004a03ba28                fdt_get_alias
 .text.fdt_supernode_atdepth_offset
                0x000000004a03ba50       0xa4 lib/built-in.o
                0x000000004a03ba50                fdt_supernode_atdepth_offset
 .text.fdt_node_depth
                0x000000004a03baf4       0x28 lib/built-in.o
                0x000000004a03baf4                fdt_node_depth
 .text.fdt_parent_offset
                0x000000004a03bb1c       0x30 lib/built-in.o
                0x000000004a03bb1c                fdt_parent_offset
 .text.fdt_node_offset_by_phandle
                0x000000004a03bb4c       0x74 lib/built-in.o
                0x000000004a03bb4c                fdt_node_offset_by_phandle
 .text.fdt_stringlist_contains
                0x000000004a03bbc0       0x7c lib/built-in.o
                0x000000004a03bbc0                fdt_stringlist_contains
 .text.fdt_stringlist_search
                0x000000004a03bc3c       0xa8 lib/built-in.o
                0x000000004a03bc3c                fdt_stringlist_search
 .text.fdt_node_check_compatible
                0x000000004a03bce4       0x40 lib/built-in.o
                0x000000004a03bce4                fdt_node_check_compatible
 .text.fdt_node_offset_by_compatible
                0x000000004a03bd24       0x6c lib/built-in.o
                0x000000004a03bd24                fdt_node_offset_by_compatible
 .text._fdt_blocks_misordered
                0x000000004a03bd90       0x64 lib/built-in.o
 .text._fdt_splice
                0x000000004a03bdf4       0x90 lib/built-in.o
 .text._fdt_splice_mem_rsv
                0x000000004a03be84       0x58 lib/built-in.o
 .text._fdt_splice_struct
                0x000000004a03bedc       0x4c lib/built-in.o
 .text._fdt_packblocks
                0x000000004a03bf28       0x8c lib/built-in.o
 .text._fdt_find_add_string
                0x000000004a03bfb4       0xa4 lib/built-in.o
 .text._fdt_add_property
                0x000000004a03c058       0x98 lib/built-in.o
 .text._fdt_rw_check_header
                0x000000004a03c0f0       0x60 lib/built-in.o
 .text.fdt_add_mem_rsv
                0x000000004a03c150       0x88 lib/built-in.o
                0x000000004a03c150                fdt_add_mem_rsv
 .text.fdt_del_mem_rsv
                0x000000004a03c1d8       0x5c lib/built-in.o
                0x000000004a03c1d8                fdt_del_mem_rsv
 .text.fdt_set_name
                0x000000004a03c234       0x88 lib/built-in.o
                0x000000004a03c234                fdt_set_name
 .text.fdt_setprop
                0x000000004a03c2bc       0xd4 lib/built-in.o
                0x000000004a03c2bc                fdt_setprop
 .text.fdt_appendprop
                0x000000004a03c390       0xd8 lib/built-in.o
                0x000000004a03c390                fdt_appendprop
 .text.fdt_delprop
                0x000000004a03c468       0x60 lib/built-in.o
                0x000000004a03c468                fdt_delprop
 .text.fdt_add_subnode_namelen
                0x000000004a03c4c8       0xf0 lib/built-in.o
                0x000000004a03c4c8                fdt_add_subnode_namelen
 .text.fdt_add_subnode
                0x000000004a03c5b8       0x30 lib/built-in.o
                0x000000004a03c5b8                fdt_add_subnode
 .text.fdt_del_node
                0x000000004a03c5e8       0x58 lib/built-in.o
                0x000000004a03c5e8                fdt_del_node
 .text.fdt_open_into
                0x000000004a03c640      0x190 lib/built-in.o
                0x000000004a03c640                fdt_open_into
 .text.fdt_strerror
                0x000000004a03c7d0       0x58 lib/built-in.o
                0x000000004a03c7d0                fdt_strerror
 .text._fdt_node_end_offset
                0x000000004a03c828       0x44 lib/built-in.o
                0x000000004a03c828                _fdt_node_end_offset
 .text.fdt_address_cells
                0x000000004a03c86c       0x4c lib/built-in.o
                0x000000004a03c86c                fdt_address_cells
 .text.fdt_size_cells
                0x000000004a03c8b8       0x48 lib/built-in.o
                0x000000004a03c8b8                fdt_size_cells
 .text.fdtdec_get_int
                0x000000004a03c900       0x38 lib/built-in.o
                0x000000004a03c900                fdtdec_get_int
 .text.get_prop_check_min_len
                0x000000004a03c938       0x3c lib/built-in.o
 .text.fdtdec_get_is_enabled
                0x000000004a03c974       0x3c lib/built-in.o
                0x000000004a03c974                fdtdec_get_is_enabled
 .text.fdtdec_get_alias_seq
                0x000000004a03c9b0      0x118 lib/built-in.o
                0x000000004a03c9b0                fdtdec_get_alias_seq
 .text.fdtdec_get_chosen_prop
                0x000000004a03cac8       0x34 lib/built-in.o
                0x000000004a03cac8                fdtdec_get_chosen_prop
 .text.fdtdec_get_chosen_node
                0x000000004a03cafc       0x28 lib/built-in.o
                0x000000004a03cafc                fdtdec_get_chosen_node
 .text.fdtdec_prepare_fdt
                0x000000004a03cb24       0x44 lib/built-in.o
                0x000000004a03cb24                fdtdec_prepare_fdt
 .text.fdtdec_get_int_array
                0x000000004a03cb68       0x5c lib/built-in.o
                0x000000004a03cb68                fdtdec_get_int_array
 .text.fdtdec_get_bool
                0x000000004a03cbc4       0x1c lib/built-in.o
                0x000000004a03cbc4                fdtdec_get_bool
 .text.fdtdec_parse_phandle_with_args
                0x000000004a03cbe0      0x158 lib/built-in.o
                0x000000004a03cbe0                fdtdec_parse_phandle_with_args
 .text.fdtdec_get_config_int
                0x000000004a03cd38       0x40 lib/built-in.o
                0x000000004a03cd38                fdtdec_get_config_int
 .text.fdtdec_get_config_string
                0x000000004a03cd78       0x3c lib/built-in.o
                0x000000004a03cd78                fdtdec_get_config_string
 .text.fdtdec_setup
                0x000000004a03cdb4       0x34 lib/built-in.o
                0x000000004a03cdb4                fdtdec_setup
 .text.cmpkey   0x000000004a03cde8       0x14 lib/built-in.o
 .text._hdelete.isra.0
                0x000000004a03cdfc       0x50 lib/built-in.o
 .text.drop_var_from_set.part.1
                0x000000004a03ce4c       0x50 lib/built-in.o
 .text.match_string
                0x000000004a03ce9c       0xb4 lib/built-in.o
 .text.match_entry
                0x000000004a03cf50       0xc0 lib/built-in.o
 .text.hcreate_r
                0x000000004a03d010       0xb0 lib/built-in.o
                0x000000004a03d010                hcreate_r
 .text.hdestroy_r
                0x000000004a03d0c0       0x78 lib/built-in.o
                0x000000004a03d0c0                hdestroy_r
 .text.hmatch_r
                0x000000004a03d138       0xa0 lib/built-in.o
                0x000000004a03d138                hmatch_r
 .text.hsearch_r
                0x000000004a03d1d8      0x498 lib/built-in.o
                0x000000004a03d1d8                hsearch_r
 .text.hdelete_r
                0x000000004a03d670       0xdc lib/built-in.o
                0x000000004a03d670                hdelete_r
 .text.hexport_r
                0x000000004a03d74c      0x2a8 lib/built-in.o
                0x000000004a03d74c                hexport_r
 .text.himport_r
                0x000000004a03d9f4      0x3dc lib/built-in.o
                0x000000004a03d9f4                himport_r
 .text.hwalk_r  0x000000004a03ddd0       0x5c lib/built-in.o
                0x000000004a03ddd0                hwalk_r
 .text.display_options
                0x000000004a03de2c       0x20 lib/built-in.o
                0x000000004a03de2c                display_options
 .text.print_size
                0x000000004a03de4c      0x144 lib/built-in.o
                0x000000004a03de4c                print_size
 .text.print_buffer
                0x000000004a03df90      0x1b4 lib/built-in.o
                0x000000004a03df90                print_buffer
 .text.crc32_no_comp
                0x000000004a03e144       0xcc lib/built-in.o
                0x000000004a03e144                crc32_no_comp
 .text.crc32    0x000000004a03e210       0x14 lib/built-in.o
                0x000000004a03e210                crc32
 .text.crc32_wd
                0x000000004a03e224        0x4 lib/built-in.o
                0x000000004a03e224                crc32_wd
 .text.__div64_32
                0x000000004a03e228       0xd0 lib/built-in.o
                0x000000004a03e228                __div64_32
 .text.hang     0x000000004a03e2f8       0x1c lib/built-in.o
                0x000000004a03e2f8                hang
 .text.skip_spaces
                0x000000004a03e314       0x28 lib/built-in.o
                0x000000004a03e314                skip_spaces
 .text.strim    0x000000004a03e33c       0x60 lib/built-in.o
                0x000000004a03e33c                strim
 .text.emit     0x000000004a03e39c       0x24 lib/built-in.o
 .text.store_char_in_data
                0x000000004a03e3c0       0x28 lib/built-in.o
 .text.get_escape_char
                0x000000004a03e3e8       0x80 lib/built-in.o
 .text.relocate
                0x000000004a03e468       0x40 lib/built-in.o
 .text.match    0x000000004a03e4a8      0x3f8 lib/built-in.o
 .text.loop_greedy
                0x000000004a03e8a0       0x94 lib/built-in.o
 .text.loop_non_greedy
                0x000000004a03e934       0x80 lib/built-in.o
 .text.quantifier
                0x000000004a03e9b4       0x94 lib/built-in.o
 .text.fixup_branch
                0x000000004a03ea48       0x40 lib/built-in.o
 .text.compile  0x000000004a03ea88      0x354 lib/built-in.o
 .text.slre_compile
                0x000000004a03eddc       0xd0 lib/built-in.o
                0x000000004a03eddc                slre_compile
 .text.slre_match
                0x000000004a03eeac       0xa0 lib/built-in.o
                0x000000004a03eeac                slre_match
 .text.strncasecmp
                0x000000004a03ef4c       0x8c lib/built-in.o
                0x000000004a03ef4c                strncasecmp
 .text.strcpy   0x000000004a03efd8       0x18 lib/built-in.o
                0x000000004a03efd8                strcpy
 .text.strncpy  0x000000004a03eff0       0x24 lib/built-in.o
                0x000000004a03eff0                strncpy
 .text.strcat   0x000000004a03f014       0x30 lib/built-in.o
                0x000000004a03f014                strcat
 .text.strncat  0x000000004a03f044       0x54 lib/built-in.o
                0x000000004a03f044                strncat
 .text.strcmp   0x000000004a03f098       0x28 lib/built-in.o
                0x000000004a03f098                strcmp
 .text.strncmp  0x000000004a03f0c0       0x3c lib/built-in.o
                0x000000004a03f0c0                strncmp
 .text.strchr   0x000000004a03f0fc       0x2c lib/built-in.o
                0x000000004a03f0fc                strchr
 .text.strlen   0x000000004a03f128       0x20 lib/built-in.o
                0x000000004a03f128                strlen
 .text.strlcpy  0x000000004a03f148       0x50 lib/built-in.o
                0x000000004a03f148                strlcpy
 .text.strrchr  0x000000004a03f198       0x3c lib/built-in.o
                0x000000004a03f198                strrchr
 .text.strnlen  0x000000004a03f1d4       0x2c lib/built-in.o
                0x000000004a03f1d4                strnlen
 .text.strdup   0x000000004a03f200       0x40 lib/built-in.o
                0x000000004a03f200                strdup
 .text.memmove  0x000000004a03f240       0x44 lib/built-in.o
                0x000000004a03f240                memmove
 .text.memcmp   0x000000004a03f284       0x30 lib/built-in.o
                0x000000004a03f284                memcmp
 .text.memscan  0x000000004a03f2b4       0x2c lib/built-in.o
                0x000000004a03f2b4                memscan
 .text.strstr   0x000000004a03f2e0       0x6c lib/built-in.o
                0x000000004a03f2e0                strstr
 .text.memchr   0x000000004a03f34c       0x30 lib/built-in.o
                0x000000004a03f34c                memchr
 .text.tick_to_time
                0x000000004a03f37c       0x64 lib/built-in.o
 .text.timer_get_us
                0x000000004a03f3e0       0x24 lib/built-in.o
                0x000000004a03f3e0                timer_get_us
 .text.udelay   0x000000004a03f404       0x30 lib/built-in.o
                0x000000004a03f404                udelay
 .text.uuid_str_valid
                0x000000004a03f434       0x90 lib/built-in.o
                0x000000004a03f434                uuid_str_valid
 .text.uuid_str_to_bin
                0x000000004a03f4c4      0x184 lib/built-in.o
                0x000000004a03f4c4                uuid_str_to_bin
 .text.uuid_bin_to_str
                0x000000004a03f648       0xa4 lib/built-in.o
                0x000000004a03f648                uuid_bin_to_str
 .text.put_dec_trunc
                0x000000004a03f6ec       0xd4 lib/built-in.o
 .text.put_dec  0x000000004a03f7c0      0x1a4 lib/built-in.o
 .text.number   0x000000004a03f964      0x2bc lib/built-in.o
 .text.string   0x000000004a03fc20       0xbc lib/built-in.o
 .text.vsnprintf_internal
                0x000000004a03fcdc      0x6a0 lib/built-in.o
 .text.vscnprintf
                0x000000004a04037c       0x24 lib/built-in.o
                0x000000004a04037c                vscnprintf
 .text.snprintf
                0x000000004a0403a0       0x28 lib/built-in.o
                0x000000004a0403a0                snprintf
 .text.vsprintf
                0x000000004a0403c8       0x10 lib/built-in.o
                0x000000004a0403c8                vsprintf
 .text.sprintf  0x000000004a0403d8       0x28 lib/built-in.o
                0x000000004a0403d8                sprintf
 .text.printf   0x000000004a040400       0x50 lib/built-in.o
                0x000000004a040400                printf
 .text.vprintf  0x000000004a040450       0x34 lib/built-in.o
                0x000000004a040450                vprintf
 .text.simple_itoa
                0x000000004a040484       0x54 lib/built-in.o
                0x000000004a040484                simple_itoa
 .text.panic_finish
                0x000000004a0404d8       0x30 lib/built-in.o
 .text.panic_str
                0x000000004a040508        0xc lib/built-in.o
                0x000000004a040508                panic_str
 .text.panic    0x000000004a040514       0x1c lib/built-in.o
                0x000000004a040514                panic
 .text.simple_strtoul
                0x000000004a040530       0xb8 lib/built-in.o
                0x000000004a040530                simple_strtoul
 .text.strict_strtoul
                0x000000004a0405e8       0x78 lib/built-in.o
                0x000000004a0405e8                strict_strtoul
 .text.simple_strtol
                0x000000004a040660       0x24 lib/built-in.o
                0x000000004a040660                simple_strtol
 .text.ustrtoul
                0x000000004a040684       0x70 lib/built-in.o
                0x000000004a040684                ustrtoul
 .text.simple_strtoull
                0x000000004a0406f4       0xdc lib/built-in.o
                0x000000004a0406f4                simple_strtoull
 .text.ustrtoull
                0x000000004a0407d0       0x88 lib/built-in.o
                0x000000004a0407d0                ustrtoull
 .text.trailing_strtoln
                0x000000004a040858       0x74 lib/built-in.o
                0x000000004a040858                trailing_strtoln
 .text.trailing_strtol
                0x000000004a0408cc        0x8 lib/built-in.o
                0x000000004a0408cc                trailing_strtol
 .text.compute_ip_checksum
                0x000000004a0408d4       0x6c net/built-in.o
                0x000000004a0408d4                compute_ip_checksum
 .text.ip_checksum_ok
                0x000000004a040940       0x1c net/built-in.o
                0x000000004a040940                ip_checksum_ok
 .text.arp_init
                0x000000004a04095c       0x50 net/built-in.o
                0x000000004a04095c                arp_init
 .text.arp_raw_request
                0x000000004a0409ac       0xc0 net/built-in.o
                0x000000004a0409ac                arp_raw_request
 .text.arp_request
                0x000000004a040a6c       0x84 net/built-in.o
                0x000000004a040a6c                arp_request
 .text.arp_timeout_check
                0x000000004a040af0       0x90 net/built-in.o
                0x000000004a040af0                arp_timeout_check
 .text.arp_receive
                0x000000004a040b80      0x218 net/built-in.o
                0x000000004a040b80                arp_receive
 .text.dhcp_extended
                0x000000004a040d98      0x250 net/built-in.o
 .text.dhcp_process_options
                0x000000004a040fe8      0x1f4 net/built-in.o
 .text.dhcp_packet_process_options
                0x000000004a0411dc       0x84 net/built-in.o
 .text.dhcp_handler
                0x000000004a041260      0x3ec net/built-in.o
 .text.bootp_reset
                0x000000004a04164c       0x44 net/built-in.o
                0x000000004a04164c                bootp_reset
 .text.bootp_request
                0x000000004a041690      0x288 net/built-in.o
                0x000000004a041690                bootp_request
 .text.bootp_timeout_handler
                0x000000004a041918       0x70 net/built-in.o
 .text.dhcp_request
                0x000000004a041988        0x4 net/built-in.o
                0x000000004a041988                dhcp_request
 .text.eth_get_uclass_priv
                0x000000004a04198c       0x20 net/built-in.o
 .text.eth_pre_remove
                0x000000004a0419ac       0x30 net/built-in.o
 .text.eth_write_hwaddr
                0x000000004a0419dc       0xf0 net/built-in.o
 .text.on_ethaddr
                0x000000004a041acc       0x84 net/built-in.o
 .text.eth_post_probe
                0x000000004a041b50      0x19c net/built-in.o
 .text.eth_post_bind
                0x000000004a041cec       0x34 net/built-in.o
 .text.eth_set_current_to_next
                0x000000004a041d20       0x38 net/built-in.o
                0x000000004a041d20                eth_set_current_to_next
 .text.eth_get_dev
                0x000000004a041d58       0x38 net/built-in.o
                0x000000004a041d58                eth_get_dev
 .text.eth_set_dev
                0x000000004a041d90       0x40 net/built-in.o
                0x000000004a041d90                eth_set_dev
 .text.eth_pre_unbind
                0x000000004a041dd0       0x28 net/built-in.o
 .text.eth_get_dev_by_name
                0x000000004a041df8       0xf4 net/built-in.o
                0x000000004a041df8                eth_get_dev_by_name
 .text.eth_get_ethaddr
                0x000000004a041eec       0x20 net/built-in.o
                0x000000004a041eec                eth_get_ethaddr
 .text.eth_halt_state_only
                0x000000004a041f0c       0x28 net/built-in.o
                0x000000004a041f0c                eth_halt_state_only
 .text.eth_get_dev_index
                0x000000004a041f34       0x24 net/built-in.o
                0x000000004a041f34                eth_get_dev_index
 .text.eth_init
                0x000000004a041f58       0xfc net/built-in.o
                0x000000004a041f58                eth_init
 .text.eth_halt
                0x000000004a042054       0x3c net/built-in.o
                0x000000004a042054                eth_halt
 .text.eth_send
                0x000000004a042090       0x50 net/built-in.o
                0x000000004a042090                eth_send
 .text.eth_rx   0x000000004a0420e0       0xb4 net/built-in.o
                0x000000004a0420e0                eth_rx
 .text.eth_initialize
                0x000000004a042194       0xf8 net/built-in.o
                0x000000004a042194                eth_initialize
 .text.eth_parse_enetaddr
                0x000000004a04228c       0x5c net/built-in.o
                0x000000004a04228c                eth_parse_enetaddr
 .text.eth_getenv_enetaddr
                0x000000004a0422e8       0x5c net/built-in.o
                0x000000004a0422e8                eth_getenv_enetaddr
 .text.eth_setenv_enetaddr
                0x000000004a042344       0x4c net/built-in.o
                0x000000004a042344                eth_setenv_enetaddr
 .text.eth_getenv_enetaddr_by_index
                0x000000004a042390       0x4c net/built-in.o
                0x000000004a042390                eth_getenv_enetaddr_by_index
 .text.eth_setenv_enetaddr_by_index
                0x000000004a0423dc       0x4c net/built-in.o
                0x000000004a0423dc                eth_setenv_enetaddr_by_index
 .text.eth_common_init
                0x000000004a042428       0x18 net/built-in.o
                0x000000004a042428                eth_common_init
 .text.eth_mac_skip
                0x000000004a042440       0x40 net/built-in.o
                0x000000004a042440                eth_mac_skip
 .text.eth_get_name
                0x000000004a042480       0x28 net/built-in.o
                0x000000004a042480                eth_get_name
 .text.eth_current_changed
                0x000000004a0424a8       0x94 net/built-in.o
                0x000000004a0424a8                eth_current_changed
 .text.eth_try_another
                0x000000004a04253c       0x84 net/built-in.o
                0x000000004a04253c                eth_try_another
 .text.eth_set_current
                0x000000004a0425c0       0x8c net/built-in.o
                0x000000004a0425c0                eth_set_current
 .text.net_clear_handlers
                0x000000004a04264c       0x34 net/built-in.o
 .text.start_again_timeout_handler
                0x000000004a042680       0x14 net/built-in.o
 .text.dummy_handler
                0x000000004a042694        0x4 net/built-in.o
 .text.on_ipaddr
                0x000000004a042698       0x30 net/built-in.o
 .text.on_gatewayip
                0x000000004a0426c8       0x30 net/built-in.o
 .text.on_netmask
                0x000000004a0426f8       0x30 net/built-in.o
 .text.on_serverip
                0x000000004a042728       0x30 net/built-in.o
 .text.net_init_loop
                0x000000004a042758       0x2c net/built-in.o
 .text.net_auto_load
                0x000000004a042784       0x64 net/built-in.o
                0x000000004a042784                net_auto_load
 .text.net_init
                0x000000004a0427e8       0x70 net/built-in.o
                0x000000004a0427e8                net_init
 .text.net_start_again
                0x000000004a042858      0x168 net/built-in.o
                0x000000004a042858                net_start_again
 .text.net_loop
                0x000000004a0429c0      0x390 net/built-in.o
                0x000000004a0429c0                net_loop
 .text.net_set_udp_handler
                0x000000004a042d50       0x20 net/built-in.o
                0x000000004a042d50                net_set_udp_handler
 .text.net_get_arp_handler
                0x000000004a042d70       0x10 net/built-in.o
                0x000000004a042d70                net_get_arp_handler
 .text.net_set_timeout_handler
                0x000000004a042d80       0x60 net/built-in.o
                0x000000004a042d80                net_set_timeout_handler
 .text.net_process_received_packet
                0x000000004a042de0      0x2cc net/built-in.o
                0x000000004a042de0                net_process_received_packet
 .text.net_eth_hdr_size
                0x000000004a0430ac       0x3c net/built-in.o
                0x000000004a0430ac                net_eth_hdr_size
 .text.net_set_ether
                0x000000004a0430e8       0x98 net/built-in.o
                0x000000004a0430e8                net_set_ether
 .text.net_update_ether
                0x000000004a043180       0x7c net/built-in.o
                0x000000004a043180                net_update_ether
 .text.net_set_ip_header
                0x000000004a0431fc       0x88 net/built-in.o
                0x000000004a0431fc                net_set_ip_header
 .text.net_set_udp_header
                0x000000004a043284       0x84 net/built-in.o
                0x000000004a043284                net_set_udp_header
 .text.net_send_udp_packet
                0x000000004a043308      0x108 net/built-in.o
                0x000000004a043308                net_send_udp_packet
 .text.copy_filename
                0x000000004a043410       0x44 net/built-in.o
                0x000000004a043410                copy_filename
 .text.on_bootfile
                0x000000004a043454       0x34 net/built-in.o
 .text.ip_to_string
                0x000000004a043488       0x3c net/built-in.o
                0x000000004a043488                ip_to_string
 .text.string_to_vlan
                0x000000004a0434c4       0x50 net/built-in.o
                0x000000004a0434c4                string_to_vlan
 .text.on_nvlan
                0x000000004a043514       0x30 net/built-in.o
 .text.on_vlan  0x000000004a043544       0x30 net/built-in.o
 .text.rpc_lookup_reply
                0x000000004a043574       0xb8 net/built-in.o
 .text.nfs_mount_reply
                0x000000004a04362c       0xac net/built-in.o
 .text.nfs_umountall_reply
                0x000000004a0436d8       0x9c net/built-in.o
 .text.nfs_lookup_reply
                0x000000004a043774      0x130 net/built-in.o
 .text.nfs3_get_attributes_offset
                0x000000004a0438a4       0x14 net/built-in.o
 .text.nfs_readlink_reply
                0x000000004a0438b8      0x124 net/built-in.o
 .text.basename
                0x000000004a0439dc       0x3c net/built-in.o
 .text.rpc_req  0x000000004a043a18      0x124 net/built-in.o
 .text.nfs_umountall_req
                0x000000004a043b3c       0x84 net/built-in.o
 .text.nfs_read_reply.isra.0
                0x000000004a043bc0      0x170 net/built-in.o
 .text.nfs_mount_req
                0x000000004a043d30       0xbc net/built-in.o
 .text.nfs_readlink_req
                0x000000004a043dec       0xc8 net/built-in.o
 .text.nfs_lookup_req
                0x000000004a043eb4      0x18c net/built-in.o
 .text.nfs_read_req
                0x000000004a044040       0xf4 net/built-in.o
 .text.nfs_send
                0x000000004a044134      0x154 net/built-in.o
 .text.nfs_handler
                0x000000004a044288      0x240 net/built-in.o
 .text.nfs_timeout_handler
                0x000000004a0444c8       0x64 net/built-in.o
 .text.nfs_start
                0x000000004a04452c      0x170 net/built-in.o
                0x000000004a04452c                nfs_start
 .text.ping_timeout_handler
                0x000000004a04469c       0x1c net/built-in.o
 .text.ping_start
                0x000000004a0446b8      0x11c net/built-in.o
                0x000000004a0446b8                ping_start
 .text.ping_receive
                0x000000004a0447d4       0xdc net/built-in.o
                0x000000004a0447d4                ping_receive
 .text.tftp_send
                0x000000004a0448b0      0x1c4 net/built-in.o
 .text.tftp_handler
                0x000000004a044a74      0x3a0 net/built-in.o
 .text.tftp_timeout_handler
                0x000000004a044e14       0x88 net/built-in.o
 .text.tftp_start
                0x000000004a044e9c      0x398 net/built-in.o
                0x000000004a044e9c                tftp_start
 .text.do_dm_dump_devres
                0x000000004a045234        0x8 test/dm/built-in.o
 .text.do_dm    0x000000004a04523c       0x74 test/dm/built-in.o
 .text.do_dm_dump_uclass
                0x000000004a0452b0       0x10 test/dm/built-in.o
 .text.do_dm_dump_all
                0x000000004a0452c0       0x10 test/dm/built-in.o
 .text.__ashldi3
                0x000000004a0452d0       0x1c arch/arm/lib/lib.a(ashldi3.o)
                0x000000004a0452d0                __ashldi3
                0x000000004a0452d0                __aeabi_llsl
 .text.__udivsi3
                0x000000004a0452ec       0x9c arch/arm/lib/lib.a(lib1funcs.o)
                0x000000004a0452ec                __udivsi3
                0x000000004a0452ec                __aeabi_uidiv
 .text.__divsi3
                0x000000004a045388       0xcc arch/arm/lib/lib.a(lib1funcs.o)
                0x000000004a045388                __aeabi_idiv
                0x000000004a045388                __divsi3
 .text.__aeabi_uidivmod
                0x000000004a045454       0x30 arch/arm/lib/lib.a(lib1funcs.o)
                0x000000004a045454                __aeabi_uidivmod
                0x000000004a04546c                __aeabi_idivmod
 .text.Ldiv0    0x000000004a045484       0x10 arch/arm/lib/lib.a(lib1funcs.o)
 .text.__lshldi3
                0x000000004a045494       0x1c arch/arm/lib/lib.a(lshrdi3.o)
                0x000000004a045494                __aeabi_llsr
                0x000000004a045494                __lshrdi3
 .text.__div0   0x000000004a0454b0        0x4 arch/arm/lib/lib.a(div0.o)
                0x000000004a0454b0                __div0

.glue_7         0x000000004a0454b4        0x0
 .glue_7        0x000000004a0454b4        0x0 linker stubs

.glue_7t        0x000000004a0454b4        0x0
 .glue_7t       0x000000004a0454b4        0x0 linker stubs

.vfp11_veneer   0x000000004a0454b4        0x0
 .vfp11_veneer  0x000000004a0454b4        0x0 linker stubs

.v4_bx          0x000000004a0454b4        0x0
 .v4_bx         0x000000004a0454b4        0x0 linker stubs

.iplt           0x000000004a0454b4        0x0
 .iplt          0x000000004a0454b4        0x0 arch/arm/cpu/armv7/start.o

.__secure_start
                0x000000004a0454b4        0x0
 *(.__secure_start)
 .__secure_start
                0x000000004a0454b4        0x0 arch/arm/lib/built-in.o
                0x000000004a0454b4                __secure_start

.secure_text    0x0000000000020000      0x64c load address 0x000000004a0454b4
 *(._secure.text)
 ._secure.text  0x0000000000020000      0x64c arch/arm/cpu/armv7/built-in.o
                0x0000000000020098                _do_nonsec_entry
                0x00000000000200ac                _nonsec_init
                0x0000000000020140                _psci_vectors
                0x0000000000020164                default_psci_vector
                0x0000000000020168                psci_migrate_info_up_cpu
                0x0000000000020168                psci_cpu_suspend
                0x0000000000020168                psci_version
                0x0000000000020168                psci_affinity_info
                0x0000000000020168                psci_migrate
                0x0000000000020168                psci_system_reset
                0x0000000000020168                psci_system_suspend
                0x0000000000020168                psci_system_off
                0x0000000000020168                psi_stat_residency
                0x0000000000020168                psci_features
                0x0000000000020168                psci_cpu_default_suspend
                0x0000000000020168                psci_stat_count
                0x0000000000020168                psci_node_hw_state
                0x0000000000020168                psci_set_suspend_mode
                0x0000000000020168                psci_migrate_info_type
                0x0000000000020168                psci_cpu_freeze
                0x0000000000020270                psci_get_cpu_id
                0x000000000002027c                psci_v7_flush_dcache_all
                0x0000000000020320                psci_disable_smp
                0x0000000000020338                psci_enable_smp
                0x000000000002034c                psci_cpu_off_common
                0x0000000000020390                psci_stack_setup
                0x00000000000203b0                psci_cpu_entry
                0x00000000000203d0                psci_save_target_pc
                0x00000000000203e4                psci_get_target_pc
                0x000000000002042c                sunxi_cpu_power_off
                0x00000000000204b4                psci_fiq_enter
                0x000000000002050c                psci_cpu_on
                0x00000000000205c8                psci_cpu_off
                0x00000000000205f4                psci_arch_init

.secure_data    0x000000000002064c       0x10 load address 0x000000004a045b00
 *(._secure.data)
 ._secure.data  0x000000000002064c       0x10 arch/arm/cpu/armv7/built-in.o

.secure_stack   0x0000000000021000     0x1000 load address 0x000000004a045b10
 *(.__secure_stack_start)
 .__secure_stack_start
                0x0000000000021000        0x0 arch/arm/lib/built-in.o
                0x0000000000021000                __secure_stack_start
                0x0000000000022000                . = (. + 0x1000)
 *fill*         0x0000000000021000     0x1000 
                0x0000000000022000                . = ALIGN (0x1000)
 *(.__secure_stack_end)
 .__secure_stack_end
                0x0000000000022000        0x0 arch/arm/lib/built-in.o
                0x0000000000022000                __secure_stack_end
                0x0000000000000001                ASSERT (((. - ADDR (.secure_text)) <= 0x10000), Error: secure section exceeds secure memory size)
                0x000000004a045b10                . = LOADADDR (.secure_stack)

.__secure_end   0x000000004a045b10        0x4
 *(.__secure_end)
 .__secure_end  0x000000004a045b10        0x0 arch/arm/lib/built-in.o
                0x000000004a045b10                __secure_end
                0x000000004a045b10        0x4 LONG 0x1d1071c
                0x000000004a045b14                . = ALIGN (0x4)

.rodata         0x000000004a045b18    0x116d8
 *(SORT(.rodata*))
 .rodata.efi_boot_services
                0x000000004a045b18       0xc8 lib/built-in.o
 .rodata        0x000000004a045be0       0x80 arch/arm/lib/built-in.o
 .rodata.CSWTCH.28
                0x000000004a045c60       0x20 common/built-in.o
 .rodata.CSWTCH.39
                0x000000004a045c80       0x14 cmd/built-in.o
 .rodata.CSWTCH.46
                0x000000004a045c94       0x20 disk/built-in.o
 .rodata.CSWTCH.47
                0x000000004a045cb4       0x24 drivers/built-in.o
 .rodata.boot_os
                0x000000004a045cd8       0x60 common/built-in.o
 .rodata.cc_to_error
                0x000000004a045d38       0x40 drivers/usb/host/built-in.o
 .rodata.cc_to_string
                0x000000004a045d78       0x40 drivers/usb/host/built-in.o
 .rodata.crc_table
                0x000000004a045db8      0x400 lib/built-in.o
 .rodata.desc_and_len_tbl
                0x000000004a0461b8       0x30 cmd/built-in.o
 .rodata.designware_eth_ids
                0x000000004a0461e8       0x30 drivers/net/built-in.o
 .rodata.designware_eth_ops
                0x000000004a046218       0x1c drivers/net/built-in.o
                0x000000004a046218                designware_eth_ops
 .rodata.efi_con_in
                0x000000004a046234        0xc lib/built-in.o
                0x000000004a046234                efi_con_in
 .rodata.efi_con_out
                0x000000004a046240       0x28 lib/built-in.o
                0x000000004a046240                efi_con_out
 .rodata.efi_console_control
                0x000000004a046268        0xc lib/built-in.o
                0x000000004a046268                efi_console_control
 .rodata.efi_runtime_detach_list
                0x000000004a046274       0x38 lib/built-in.o
 .rodata.ehci_usb_ids
                0x000000004a0462ac       0x50 drivers/usb/host/built-in.o
 .rodata.env_flags_varaccess_mask
                0x000000004a0462fc       0x10 common/built-in.o
 .rodata.ext_csd_bits.9515
                0x000000004a04630c       0x14 drivers/mmc/built-in.o
 .rodata.ext_to_hostcaps.9516
                0x000000004a046320       0x1c drivers/mmc/built-in.o
 .rodata.fbase  0x000000004a04633c       0x10 drivers/mmc/built-in.o
 .rodata.fdt_errtable
                0x000000004a04634c       0x48 lib/built-in.o
 .rodata.generic_simple_bus_ids
                0x000000004a046394       0x18 drivers/built-in.o
 .rodata.gpio_function
                0x000000004a0463ac       0x14 drivers/gpio/built-in.o
 .rodata.gpio_sunxi_ops
                0x000000004a0463c0       0x28 drivers/gpio/built-in.o
 .rodata.hub_id_table
                0x000000004a0463e8       0x30 common/built-in.o
 .rodata.init_sequence_f
                0x000000004a046418       0xa0 common/built-in.o
 .rodata.kbd_id_table
                0x000000004a0464b8       0x30 common/built-in.o
 .rodata.keywords
                0x000000004a0464e8       0x98 cmd/built-in.o
 .rodata.mass_storage_id_table
                0x000000004a046580       0x30 common/built-in.o
 .rodata.ns16550_serial_ids
                0x000000004a0465b0       0x60 drivers/serial/built-in.o
 .rodata.ns16550_serial_ops
                0x000000004a046610       0x14 drivers/serial/built-in.o
                0x000000004a046610                ns16550_serial_ops
 .rodata.ohci_usb_ids
                0x000000004a046624       0x50 drivers/usb/host/built-in.o
 .rodata.op_adv
                0x000000004a046674      0x100 cmd/built-in.o
                0x000000004a046674                op_adv
 .rodata.op_table
                0x000000004a046774       0x68 cmd/built-in.o
 .rodata.phy_interface_strings
                0x000000004a0467dc       0x44 drivers/net/phy/built-in.o
 .rodata.reg_0_5_desc_tbl
                0x000000004a046820       0x30 cmd/built-in.o
 .rodata.reg_0_desc_tbl
                0x000000004a046850       0x78 cmd/built-in.o
 .rodata.reg_1_desc_tbl
                0x000000004a0468c8       0xc0 cmd/built-in.o
 .rodata.reg_2_desc_tbl
                0x000000004a046988        0xc cmd/built-in.o
 .rodata.reg_3_desc_tbl
                0x000000004a046994       0x24 cmd/built-in.o
 .rodata.reg_4_desc_tbl
                0x000000004a0469b8       0x90 cmd/built-in.o
 .rodata.reg_5_desc_tbl
                0x000000004a046a48       0x90 cmd/built-in.o
 .rodata.res_mode_init
                0x000000004a046ad8      0x208 drivers/built-in.o
                0x000000004a046ad8                res_mode_init
 .rodata.root_info
                0x000000004a046ce0        0x8 drivers/built-in.o
 .rodata.sd_au_size
                0x000000004a046ce8       0x40 drivers/mmc/built-in.o
 .rodata.smbios_write_funcs
                0x000000004a046d28       0x1c lib/built-in.o
 .rodata.soc_data_a_all
                0x000000004a046d44        0x8 drivers/gpio/built-in.o
 .rodata.soc_data_l_1
                0x000000004a046d4c        0x8 drivers/gpio/built-in.o
 .rodata.soc_data_l_2
                0x000000004a046d54        0x8 drivers/gpio/built-in.o
 .rodata.soc_data_l_3
                0x000000004a046d5c        0x8 drivers/gpio/built-in.o
 .rodata.sunxi_gpio_ids
                0x000000004a046d64       0x88 drivers/gpio/built-in.o
 .rodata.sunxi_mmc_ops
                0x000000004a046dec       0x14 drivers/mmc/built-in.o
 .rodata.sunxi_rgb2yuv_coef
                0x000000004a046e00       0x30 drivers/built-in.o
 .rodata.uimage_arch
                0x000000004a046e30      0x138 common/built-in.o
 .rodata.uimage_comp
                0x000000004a046f68       0x54 common/built-in.o
 .rodata.uimage_os
                0x000000004a046fbc       0x78 common/built-in.o
 .rodata.uimage_type
                0x000000004a047034      0x180 common/built-in.o
 .rodata.usb_hub_ids
                0x000000004a0471b4       0x10 common/built-in.o
 .rodata.usb_kbd_ids
                0x000000004a0471c4       0x10 common/built-in.o
 .rodata.usb_mass_storage_ids
                0x000000004a0471d4       0x10 common/built-in.o
 .rodata.video_font_draw_table15
                0x000000004a0471e4       0x10 drivers/built-in.o
 .rodata.video_font_draw_table16
                0x000000004a0471f4       0x10 drivers/built-in.o
 .rodata.video_font_draw_table24
                0x000000004a047204       0xc0 drivers/built-in.o
 .rodata.video_font_draw_table32
                0x000000004a0472c4      0x100 drivers/built-in.o
 .rodata.video_font_draw_table8
                0x000000004a0473c4       0x40 drivers/built-in.o
 .rodata.widths.9517
                0x000000004a047404       0x14 drivers/mmc/built-in.o
 .rodata.CSWTCH.29
                0x000000004a047418        0x8 common/built-in.o
 .rodata.crc16_tab
                0x000000004a047420      0x200 lib/built-in.o
 .rodata.dbase.7440
                0x000000004a047620       0x40 lib/built-in.o
 .rodata.dext.7441
                0x000000004a047660       0x40 lib/built-in.o
 .rodata.distfix
                0x000000004a0476a0       0x80 lib/built-in.o
 .rodata.lbase.7438
                0x000000004a047720       0x3e lib/built-in.o
 .rodata.lenfix
                0x000000004a04775e      0x800 lib/built-in.o
 .rodata.lext.7439
                0x000000004a047f5e       0x3e lib/built-in.o
 .rodata.order.7534
                0x000000004a047f9c       0x26 lib/built-in.o
 .rodata        0x000000004a047fc2       0x18 cmd/built-in.o
 .rodata        0x000000004a047fda        0xc common/built-in.o
 .rodata        0x000000004a047fe6       0x24 drivers/built-in.o
 .rodata        0x000000004a04800a       0x3f drivers/usb/host/built-in.o
 .rodata        0x000000004a048049       0x20 lib/built-in.o
 .rodata        0x000000004a048069        0x7 net/built-in.o
 .rodata.CSWTCH.66
                0x000000004a048070       0x16 common/built-in.o
 .rodata.__FUNCTION__.8837
                0x000000004a048086       0x17 common/built-in.o
 .rodata.__FUNCTION__.8982
                0x000000004a04809d       0x17 common/built-in.o
 .rodata.__func__.10040
                0x000000004a0480b4       0x17 drivers/usb/host/built-in.o
 .rodata.__func__.7383
                0x000000004a0480cb        0xf fs/built-in.o
 .rodata.__func__.7503
                0x000000004a0480da       0x10 common/built-in.o
 .rodata.__func__.7519
                0x000000004a0480ea        0xb common/built-in.o
 .rodata.__func__.7526
                0x000000004a0480f5        0xb common/built-in.o
 .rodata.__func__.7900
                0x000000004a048100        0xc lib/built-in.o
 .rodata.__func__.7949
                0x000000004a04810c        0xe cmd/built-in.o
 .rodata.__func__.7986
                0x000000004a04811a        0xe cmd/built-in.o
 .rodata.__func__.8000
                0x000000004a048128        0xe common/built-in.o
 .rodata.__func__.8427
                0x000000004a048136        0xf disk/built-in.o
 .rodata.__func__.8439
                0x000000004a048145       0x12 disk/built-in.o
 .rodata.__func__.8573
                0x000000004a048157        0xd disk/built-in.o
 .rodata.__func__.8582
                0x000000004a048164       0x17 disk/built-in.o
 .rodata.__func__.8587
                0x000000004a04817b        0xd disk/built-in.o
 .rodata.__func__.8714
                0x000000004a048188       0x18 common/built-in.o
 .rodata.__func__.8919
                0x000000004a0481a0        0xe drivers/built-in.o
 .rodata.__func__.9398
                0x000000004a0481ae        0xd drivers/built-in.o
 .rodata.__func__.9404
                0x000000004a0481bb       0x11 drivers/built-in.o
 .rodata.__func__.9408
                0x000000004a0481cc       0x18 drivers/built-in.o
 .rodata.__func__.9412
                0x000000004a0481e4       0x18 drivers/built-in.o
 .rodata.__func__.9416
                0x000000004a0481fc        0xd drivers/built-in.o
 .rodata.__func__.9420
                0x000000004a048209       0x14 drivers/built-in.o
 .rodata.__func__.9424
                0x000000004a04821d       0x14 drivers/built-in.o
 .rodata.__func__.9549
                0x000000004a048231        0x9 drivers/mmc/built-in.o
 .rodata.__func__.9710
                0x000000004a04823a       0x10 drivers/built-in.o
 .rodata.__func__.9725
                0x000000004a04824a        0xf common/built-in.o
 .rodata.__func__.9761
                0x000000004a048259       0x13 drivers/built-in.o
 .rodata.__func__.9822
                0x000000004a04826c        0xa drivers/built-in.o
 .rodata._ctype
                0x000000004a048276      0x100 lib/built-in.o
                0x000000004a048276                _ctype
 .rodata.default_environment
                0x000000004a048376     0x103a common/built-in.o
                0x000000004a048376                default_environment
 .rodata.digits.7145
                0x000000004a0493b0       0x10 lib/built-in.o
 .rodata.efi_block_io_guid
                0x000000004a0493c0       0x10 lib/built-in.o
 .rodata.efi_guid_console_control
                0x000000004a0493d0       0x10 lib/built-in.o
                0x000000004a0493d0                efi_guid_console_control
 .rodata.efi_guid_device_path
                0x000000004a0493e0       0x10 lib/built-in.o
                0x000000004a0493e0                efi_guid_device_path
 .rodata.efi_guid_loaded_image
                0x000000004a0493f0       0x10 lib/built-in.o
                0x000000004a0493f0                efi_guid_loaded_image
 .rodata.efi_net_guid
                0x000000004a049400       0x10 lib/built-in.o
 .rodata.efi_pxe_guid
                0x000000004a049410       0x10 lib/built-in.o
 .rodata.env_flags_varaccess_rep
                0x000000004a049420        0x5 common/built-in.o
 .rodata.env_flags_vartype_rep
                0x000000004a049425        0x7 common/built-in.o
 .rodata.erase_seq
                0x000000004a04942c        0x4 common/built-in.o
 .rodata.hdr.9755
                0x000000004a049430        0x5 drivers/built-in.o
 .rodata.hex_asc
                0x000000004a049435       0x11 lib/built-in.o
 .rodata.multipliers
                0x000000004a049446       0x10 drivers/mmc/built-in.o
 .rodata.names.7365
                0x000000004a049456        0x6 lib/built-in.o
 .rodata.net_bcast_ethaddr
                0x000000004a04945c        0x6 net/built-in.o
                0x000000004a04945c                net_bcast_ethaddr
 .rodata.smbios_guid
                0x000000004a049462       0x10 lib/built-in.o
 .rodata.str1.1
                0x000000004a049472       0x5c arch/arm/cpu/armv7/built-in.o
 .rodata.str1.1
                0x000000004a0494ce      0x3fe arch/arm/lib/built-in.o
                                        0x457 (size before relaxing)
 .rodata.str1.1
                0x000000004a0498cc       0x62 arch/arm/mach-sunxi/built-in.o
                                         0x63 (size before relaxing)
 .rodata.str1.1
                0x000000004a04992e       0xc7 board/sunxi/built-in.o
                                         0xc9 (size before relaxing)
 .rodata.str1.1
                0x000000004a0499f5     0x5d52 cmd/built-in.o
                                       0x639e (size before relaxing)
 .rodata.str1.1
                0x000000004a04f747     0x2afe common/built-in.o
                                       0x2f46 (size before relaxing)
 .rodata.str1.1
                0x000000004a052245      0xbde disk/built-in.o
                                        0xc21 (size before relaxing)
 .rodata.str1.1
                0x000000004a052e23      0xd52 drivers/built-in.o
                                        0xe04 (size before relaxing)
 .rodata.str1.1
                0x000000004a053b75      0x28a drivers/gpio/built-in.o
                                        0x2a7 (size before relaxing)
 .rodata.str1.1
                0x000000004a053dff       0x56 drivers/i2c/built-in.o
 .rodata.str1.1
                0x000000004a053e55      0x3a3 drivers/mmc/built-in.o
                                        0x401 (size before relaxing)
 .rodata.str1.1
                0x000000004a0541f8      0x160 drivers/net/built-in.o
                                        0x16e (size before relaxing)
 .rodata.str1.1
                0x000000004a054358      0x1a4 drivers/net/phy/built-in.o
                                        0x1d2 (size before relaxing)
 .rodata.str1.1
                0x000000004a0544fc      0x12e drivers/serial/built-in.o
                                        0x184 (size before relaxing)
 .rodata.str1.1
                0x000000004a05462a      0xdbc drivers/usb/host/built-in.o
                                        0xdd2 (size before relaxing)
 .rodata.str1.1
                0x000000004a0553e6      0x79f fs/built-in.o
                                        0x801 (size before relaxing)
 .rodata.str1.1
                0x000000004a055b85      0xd7d lib/built-in.o
                                        0xe97 (size before relaxing)
 .rodata.str1.1
                0x000000004a056902      0x754 net/built-in.o
                                        0x84e (size before relaxing)
 .rodata.str1.1
                0x000000004a057056       0xdc test/dm/built-in.o
                                         0xe2 (size before relaxing)
 .rodata.tab_seq
                0x000000004a057132        0x9 common/built-in.o
 .rodata.us_direction
                0x000000004a05713b       0x20 common/built-in.o
 .rodata.usb_kbd_arrow
                0x000000004a05715b        0x4 common/built-in.o
 .rodata.usb_kbd_num_keypad
                0x000000004a05715f       0x14 common/built-in.o
 .rodata.usb_kbd_numkey
                0x000000004a057173       0x1b common/built-in.o
 .rodata.usb_kbd_numkey_shifted
                0x000000004a05718e       0x1b common/built-in.o
 .rodata.version_string
                0x000000004a0571a9       0x47 cmd/built-in.o
                0x000000004a0571a9                version_string

.hash           0x000000004a0571f0       0x2c
 .hash          0x000000004a0571f0       0x2c arch/arm/cpu/armv7/start.o
                0x000000004a05721c                . = ALIGN (0x4)

.data           0x000000004a057220     0x4f5c
 *(.data*)
 .data.sunxi_usb_phy
                0x000000004a057220       0x60 arch/arm/mach-sunxi/built-in.o
 .data.bootm_help_text
                0x000000004a057280      0x38b cmd/built-in.o
 *fill*         0x000000004a05760b        0x1 
 .data.cmd_bootm_sub
                0x000000004a05760c       0xfc cmd/built-in.o
 .data.source_help_text
                0x000000004a057708       0x4e cmd/built-in.o
 .data.bootefi_device_path
                0x000000004a057756       0x88 cmd/built-in.o
 *fill*         0x000000004a0577de        0x2 
 .data.loaded_image_info_obj
                0x000000004a0577e0       0x2c cmd/built-in.o
 .data.bootefi_image_path
                0x000000004a05780c       0x88 cmd/built-in.o
 .data.bootefi_help_text
                0x000000004a057894       0xbf cmd/built-in.o
 *fill*         0x000000004a057953        0x1 
 .data.bootefi_device_obj
                0x000000004a057954       0x2c cmd/built-in.o
 .data.loaded_image_info
                0x000000004a057980       0x60 cmd/built-in.o
 .data.bootz_help_text
                0x000000004a0579e0      0x208 cmd/built-in.o
 .data.root.8013
                0x000000004a057be8        0x2 cmd/built-in.o
 .data.tabs.8098
                0x000000004a057bea       0x21 cmd/built-in.o
 .data.fdt_help_text
                0x000000004a057c0b      0x649 cmd/built-in.o
 .data.i2c_help_text
                0x000000004a058254      0x3b1 cmd/built-in.o
 *fill*         0x000000004a058605        0x3 
 .data.cmd_i2c_sub
                0x000000004a058608      0x188 cmd/built-in.o
 .data.i2c_dp_last_length
                0x000000004a058790        0x4 cmd/built-in.o
 .data.do_echo  0x000000004a058794        0x4 cmd/built-in.o
 .data.dp_last_length
                0x000000004a058798        0x4 cmd/built-in.o
 .data.curr_device
                0x000000004a05879c        0x4 cmd/built-in.o
 .data.cmd_mmc  0x000000004a0587a0      0x118 cmd/built-in.o
 .data.cmd_pxe_sub
                0x000000004a0588b8       0x38 cmd/built-in.o
 .data.pxe_default_paths
                0x000000004a0588f0       0x10 cmd/built-in.o
                0x000000004a0588f0                pxe_default_paths
 .data.usb_stor_curr_dev
                0x000000004a058900        0x4 cmd/built-in.o
 .data.imgextract_help_text
                0x000000004a058904       0x55 cmd/built-in.o
 .data.env_help_text
                0x000000004a058959      0x24f cmd/built-in.o
 .data.env_id   0x000000004a058ba8        0x4 cmd/built-in.o
 .data.cmd_env_sub
                0x000000004a058bac      0x118 cmd/built-in.o
 .data.reserved_list
                0x000000004a058cc4       0x84 common/built-in.o
 .data.init_sequence_r
                0x000000004a058d48       0x74 common/built-in.o
 .data.first_call
                0x000000004a058dbc        0x8 common/built-in.o
 .data.env_name_spec
                0x000000004a058dc4        0x4 common/built-in.o
                0x000000004a058dc4                env_name_spec
 .data.of_busses
                0x000000004a058dc8       0x18 common/built-in.o
 .data.usb_scan_list
                0x000000004a058de0        0x8 common/built-in.o
 .data.env_htab
                0x000000004a058de8       0x10 common/built-in.o
                0x000000004a058de8                env_htab
 .data.av_      0x000000004a058df8      0x408 common/built-in.o
 .data.sbrk_base
                0x000000004a059200        0x4 common/built-in.o
 .data.trim_threshold
                0x000000004a059204        0x4 common/built-in.o
 .data.load_addr
                0x000000004a059208        0x4 common/built-in.o
                0x000000004a059208                load_addr
 .data.stdio_names
                0x000000004a05920c        0xc common/built-in.o
                0x000000004a05920c                stdio_names
 .data.hist_cur
                0x000000004a059218        0x4 common/built-in.o
 .data.system_guid
                0x000000004a05921c       0x10 disk/built-in.o
 .data.nl.8587  0x000000004a05922c        0x4 drivers/built-in.o
 .data.linux_logo_blue
                0x000000004a059230       0xd6 drivers/built-in.o
                0x000000004a059230                linux_logo_blue
 .data.video_fontdata
                0x000000004a059306     0x1000 drivers/built-in.o
 .data.linux_logo
                0x000000004a05a306     0x1900 drivers/built-in.o
                0x000000004a05a306                linux_logo
 .data.linux_logo_green
                0x000000004a05bc06       0xd6 drivers/built-in.o
                0x000000004a05bc06                linux_logo_green
 .data.linux_logo_red
                0x000000004a05bcdc       0xd6 drivers/built-in.o
                0x000000004a05bcdc                linux_logo_red
 *fill*         0x000000004a05bdb2        0x2 
 .data.cur_dev_num
                0x000000004a05bdb4        0x4 drivers/mmc/built-in.o
 .data.supported
                0x000000004a05bdb8       0x38 drivers/net/built-in.o
 .data.genphy_driver
                0x000000004a05bdf0       0x34 drivers/net/phy/built-in.o
 .data.phy_drivers
                0x000000004a05be24        0x8 drivers/net/phy/built-in.o
 .data.RTL8211F_driver
                0x000000004a05be2c       0x34 drivers/net/phy/built-in.o
 .data.RTL8211E_driver
                0x000000004a05be60       0x34 drivers/net/phy/built-in.o
 .data.RTL8211DN_driver
                0x000000004a05be94       0x34 drivers/net/phy/built-in.o
 .data.RTL8211B_driver
                0x000000004a05bec8       0x34 drivers/net/phy/built-in.o
 .data.root_hub_config_des
                0x000000004a05befc       0x19 drivers/usb/host/built-in.o
 *fill*         0x000000004a05bf15        0x3 
 .data.ohci_usb_ops
                0x000000004a05bf18       0x20 drivers/usb/host/built-in.o
                0x000000004a05bf18                ohci_usb_ops
 .data.root_hub_dev_des
                0x000000004a05bf38       0x12 drivers/usb/host/built-in.o
 .data.root_hub_str_index0
                0x000000004a05bf4a        0x4 drivers/usb/host/built-in.o
 .data.root_hub_str_index1
                0x000000004a05bf4e       0x20 drivers/usb/host/built-in.o
 *fill*         0x000000004a05bf6e        0x2 
 .data.ehci_usb_ops
                0x000000004a05bf70       0x20 drivers/usb/host/built-in.o
                0x000000004a05bf70                ehci_usb_ops
 .data.descriptor
                0x000000004a05bf90       0x38 drivers/usb/host/built-in.o
 .data.fstypes  0x000000004a05bfc8       0x84 fs/built-in.o
 .data.ext4fs_indir3_blkno
                0x000000004a05c04c        0x4 fs/built-in.o
                0x000000004a05c04c                ext4fs_indir3_blkno
 .data.ext4fs_indir1_blkno
                0x000000004a05c050        0x4 fs/built-in.o
                0x000000004a05c050                ext4fs_indir1_blkno
 .data.ext4fs_indir2_blkno
                0x000000004a05c054        0x4 fs/built-in.o
                0x000000004a05c054                ext4fs_indir2_blkno
 .data.efi_event
                0x000000004a05c058       0x28 lib/built-in.o
 .data.loaded_image_info_obj.8029
                0x000000004a05c080       0x2c lib/built-in.o
 .data.efi_is_direct_boot
                0x000000004a05c0ac        0x1 lib/built-in.o
 *fill*         0x000000004a05c0ad        0x3 
 .data.efi_obj_list
                0x000000004a05c0b0        0x8 lib/built-in.o
                0x000000004a05c0b0                efi_obj_list
 .data.lastoff.9558
                0x000000004a05c0b8        0x4 lib/built-in.o
 .data.efi_runtime_mmio
                0x000000004a05c0bc        0x8 lib/built-in.o
                0x000000004a05c0bc                efi_runtime_mmio
 .data.efi_cout_modes
                0x000000004a05c0c4       0x24 lib/built-in.o
 .data.efi_con_mode
                0x000000004a05c0e8       0x18 lib/built-in.o
 .data.efi_mem  0x000000004a05c100        0x8 lib/built-in.o
                0x000000004a05c100                efi_mem
 .data.first_call.7709
                0x000000004a05c108        0x4 net/built-in.o
 .data.net_native_vlan
                0x000000004a05c10c        0x2 net/built-in.o
                0x000000004a05c10c                net_native_vlan
 .data.net_our_vlan
                0x000000004a05c10e        0x2 net/built-in.o
                0x000000004a05c10e                net_our_vlan
 .data.nfs_offset
                0x000000004a05c110        0x4 net/built-in.o
 .data.supported_nfs_versions
                0x000000004a05c114        0x1 net/built-in.o
 *fill*         0x000000004a05c115        0x1 
 .data.tftp_block_size_option
                0x000000004a05c116        0x2 net/built-in.o
 .data.tftp_timeout_count_max
                0x000000004a05c118        0x4 net/built-in.o
                0x000000004a05c118                tftp_timeout_count_max
 .data.timeout_ms
                0x000000004a05c11c        0x4 net/built-in.o
 .data.tftp_block_size
                0x000000004a05c120        0x2 net/built-in.o
 *fill*         0x000000004a05c122        0x2 
 .data.timeout_count_max
                0x000000004a05c124        0x4 net/built-in.o
 .data.test_commands
                0x000000004a05c128       0x54 test/dm/built-in.o

.got            0x000000004a05c17c        0x0
 .got           0x000000004a05c17c        0x0 arch/arm/cpu/armv7/start.o

.got.plt        0x000000004a05c17c        0xc
 .got.plt       0x000000004a05c17c        0xc arch/arm/cpu/armv7/start.o
                0x000000004a05c17c                _GLOBAL_OFFSET_TABLE_

.igot.plt       0x000000004a05c188        0x0
 .igot.plt      0x000000004a05c188        0x0 arch/arm/cpu/armv7/start.o
                0x000000004a05c188                . = ALIGN (0x4)
                0x000000004a05c188                . = .
                0x000000004a05c188                . = ALIGN (0x4)

.u_boot_list    0x000000004a05c188     0x1040
 *(SORT(.u_boot_list*))
 .u_boot_list_2_blk_driver_1
                0x000000004a05c188        0x0 drivers/built-in.o
 .u_boot_list_2_blk_driver_2_mmc
                0x000000004a05c188       0x18 drivers/mmc/built-in.o
                0x000000004a05c188                _u_boot_list_2_blk_driver_2_mmc
 .u_boot_list_2_blk_driver_2_scsi
                0x000000004a05c1a0       0x18 common/built-in.o
                0x000000004a05c1a0                _u_boot_list_2_blk_driver_2_scsi
 .u_boot_list_2_blk_driver_2_usb
                0x000000004a05c1b8       0x18 common/built-in.o
                0x000000004a05c1b8                _u_boot_list_2_blk_driver_2_usb
 .u_boot_list_2_blk_driver_3
                0x000000004a05c1d0        0x0 drivers/built-in.o
 .u_boot_list_2_cmd_1
                0x000000004a05c1d0        0x0 cmd/built-in.o
 .u_boot_list_2_cmd_1
                0x000000004a05c1d0        0x0 common/built-in.o
 .u_boot_list_2_cmd_2_base
                0x000000004a05c1d0       0x1c cmd/built-in.o
                0x000000004a05c1d0                _u_boot_list_2_cmd_2_base
 .u_boot_list_2_cmd_2_bdinfo
                0x000000004a05c1ec       0x1c cmd/built-in.o
                0x000000004a05c1ec                _u_boot_list_2_cmd_2_bdinfo
 .u_boot_list_2_cmd_2_boot
                0x000000004a05c208       0x1c cmd/built-in.o
                0x000000004a05c208                _u_boot_list_2_cmd_2_boot
 .u_boot_list_2_cmd_2_bootd
                0x000000004a05c224       0x1c cmd/built-in.o
                0x000000004a05c224                _u_boot_list_2_cmd_2_bootd
 .u_boot_list_2_cmd_2_bootefi
                0x000000004a05c240       0x1c cmd/built-in.o
                0x000000004a05c240                _u_boot_list_2_cmd_2_bootefi
 .u_boot_list_2_cmd_2_bootelf
                0x000000004a05c25c       0x1c cmd/built-in.o
                0x000000004a05c25c                _u_boot_list_2_cmd_2_bootelf
 .u_boot_list_2_cmd_2_bootm
                0x000000004a05c278       0x1c cmd/built-in.o
                0x000000004a05c278                _u_boot_list_2_cmd_2_bootm
 .u_boot_list_2_cmd_2_bootp
                0x000000004a05c294       0x1c cmd/built-in.o
                0x000000004a05c294                _u_boot_list_2_cmd_2_bootp
 .u_boot_list_2_cmd_2_bootvx
                0x000000004a05c2b0       0x1c cmd/built-in.o
                0x000000004a05c2b0                _u_boot_list_2_cmd_2_bootvx
 .u_boot_list_2_cmd_2_bootz
                0x000000004a05c2cc       0x1c cmd/built-in.o
                0x000000004a05c2cc                _u_boot_list_2_cmd_2_bootz
 .u_boot_list_2_cmd_2_clrlogo
                0x000000004a05c2e8       0x1c drivers/built-in.o
                0x000000004a05c2e8                _u_boot_list_2_cmd_2_clrlogo
 .u_boot_list_2_cmd_2_cmp
                0x000000004a05c304       0x1c cmd/built-in.o
                0x000000004a05c304                _u_boot_list_2_cmd_2_cmp
 .u_boot_list_2_cmd_2_coninfo
                0x000000004a05c320       0x1c cmd/built-in.o
                0x000000004a05c320                _u_boot_list_2_cmd_2_coninfo
 .u_boot_list_2_cmd_2_cp
                0x000000004a05c33c       0x1c cmd/built-in.o
                0x000000004a05c33c                _u_boot_list_2_cmd_2_cp
 .u_boot_list_2_cmd_2_crc32
                0x000000004a05c358       0x1c cmd/built-in.o
                0x000000004a05c358                _u_boot_list_2_cmd_2_crc32
 .u_boot_list_2_cmd_2_dhcp
                0x000000004a05c374       0x1c cmd/built-in.o
                0x000000004a05c374                _u_boot_list_2_cmd_2_dhcp
 .u_boot_list_2_cmd_2_dm
                0x000000004a05c390       0x1c test/dm/built-in.o
                0x000000004a05c390                _u_boot_list_2_cmd_2_dm
 .u_boot_list_2_cmd_2_echo
                0x000000004a05c3ac       0x1c cmd/built-in.o
                0x000000004a05c3ac                _u_boot_list_2_cmd_2_echo
 .u_boot_list_2_cmd_2_editenv
                0x000000004a05c3c8       0x1c cmd/built-in.o
                0x000000004a05c3c8                _u_boot_list_2_cmd_2_editenv
 .u_boot_list_2_cmd_2_env
                0x000000004a05c3e4       0x1c cmd/built-in.o
                0x000000004a05c3e4                _u_boot_list_2_cmd_2_env
 .u_boot_list_2_cmd_2_exit
                0x000000004a05c400       0x1c cmd/built-in.o
                0x000000004a05c400                _u_boot_list_2_cmd_2_exit
 .u_boot_list_2_cmd_2_ext2load
                0x000000004a05c41c       0x1c cmd/built-in.o
                0x000000004a05c41c                _u_boot_list_2_cmd_2_ext2load
 .u_boot_list_2_cmd_2_ext2ls
                0x000000004a05c438       0x1c cmd/built-in.o
                0x000000004a05c438                _u_boot_list_2_cmd_2_ext2ls
 .u_boot_list_2_cmd_2_ext4load
                0x000000004a05c454       0x1c cmd/built-in.o
                0x000000004a05c454                _u_boot_list_2_cmd_2_ext4load
 .u_boot_list_2_cmd_2_ext4ls
                0x000000004a05c470       0x1c cmd/built-in.o
                0x000000004a05c470                _u_boot_list_2_cmd_2_ext4ls
 .u_boot_list_2_cmd_2_ext4size
                0x000000004a05c48c       0x1c cmd/built-in.o
                0x000000004a05c48c                _u_boot_list_2_cmd_2_ext4size
 .u_boot_list_2_cmd_2_false
                0x000000004a05c4a8       0x1c cmd/built-in.o
                0x000000004a05c4a8                _u_boot_list_2_cmd_2_false
 .u_boot_list_2_cmd_2_fatinfo
                0x000000004a05c4c4       0x1c cmd/built-in.o
                0x000000004a05c4c4                _u_boot_list_2_cmd_2_fatinfo
 .u_boot_list_2_cmd_2_fatload
                0x000000004a05c4e0       0x1c cmd/built-in.o
                0x000000004a05c4e0                _u_boot_list_2_cmd_2_fatload
 .u_boot_list_2_cmd_2_fatls
                0x000000004a05c4fc       0x1c cmd/built-in.o
                0x000000004a05c4fc                _u_boot_list_2_cmd_2_fatls
 .u_boot_list_2_cmd_2_fatsize
                0x000000004a05c518       0x1c cmd/built-in.o
                0x000000004a05c518                _u_boot_list_2_cmd_2_fatsize
 .u_boot_list_2_cmd_2_fatwrite
                0x000000004a05c534       0x1c cmd/built-in.o
                0x000000004a05c534                _u_boot_list_2_cmd_2_fatwrite
 .u_boot_list_2_cmd_2_fdt
                0x000000004a05c550       0x1c cmd/built-in.o
                0x000000004a05c550                _u_boot_list_2_cmd_2_fdt
 .u_boot_list_2_cmd_2_fstype
                0x000000004a05c56c       0x1c cmd/built-in.o
                0x000000004a05c56c                _u_boot_list_2_cmd_2_fstype
 .u_boot_list_2_cmd_2_go
                0x000000004a05c588       0x1c cmd/built-in.o
                0x000000004a05c588                _u_boot_list_2_cmd_2_go
 .u_boot_list_2_cmd_2_gpio
                0x000000004a05c5a4       0x1c cmd/built-in.o
                0x000000004a05c5a4                _u_boot_list_2_cmd_2_gpio
 .u_boot_list_2_cmd_2_help
                0x000000004a05c5c0       0x1c cmd/built-in.o
                0x000000004a05c5c0                _u_boot_list_2_cmd_2_help
 .u_boot_list_2_cmd_2_i2c
                0x000000004a05c5dc       0x1c cmd/built-in.o
                0x000000004a05c5dc                _u_boot_list_2_cmd_2_i2c
 .u_boot_list_2_cmd_2_iminfo
                0x000000004a05c5f8       0x1c cmd/built-in.o
                0x000000004a05c5f8                _u_boot_list_2_cmd_2_iminfo
 .u_boot_list_2_cmd_2_imxtract
                0x000000004a05c614       0x1c cmd/built-in.o
                0x000000004a05c614                _u_boot_list_2_cmd_2_imxtract
 .u_boot_list_2_cmd_2_itest
                0x000000004a05c630       0x1c cmd/built-in.o
                0x000000004a05c630                _u_boot_list_2_cmd_2_itest
 .u_boot_list_2_cmd_2_load
                0x000000004a05c64c       0x1c cmd/built-in.o
                0x000000004a05c64c                _u_boot_list_2_cmd_2_load
 .u_boot_list_2_cmd_2_loadb
                0x000000004a05c668       0x1c cmd/built-in.o
                0x000000004a05c668                _u_boot_list_2_cmd_2_loadb
 .u_boot_list_2_cmd_2_loads
                0x000000004a05c684       0x1c cmd/built-in.o
                0x000000004a05c684                _u_boot_list_2_cmd_2_loads
 .u_boot_list_2_cmd_2_loadx
                0x000000004a05c6a0       0x1c cmd/built-in.o
                0x000000004a05c6a0                _u_boot_list_2_cmd_2_loadx
 .u_boot_list_2_cmd_2_loady
                0x000000004a05c6bc       0x1c cmd/built-in.o
                0x000000004a05c6bc                _u_boot_list_2_cmd_2_loady
 .u_boot_list_2_cmd_2_loop
                0x000000004a05c6d8       0x1c cmd/built-in.o
                0x000000004a05c6d8                _u_boot_list_2_cmd_2_loop
 .u_boot_list_2_cmd_2_ls
                0x000000004a05c6f4       0x1c cmd/built-in.o
                0x000000004a05c6f4                _u_boot_list_2_cmd_2_ls
 .u_boot_list_2_cmd_2_md
                0x000000004a05c710       0x1c cmd/built-in.o
                0x000000004a05c710                _u_boot_list_2_cmd_2_md
 .u_boot_list_2_cmd_2_mdio
                0x000000004a05c72c       0x1c cmd/built-in.o
                0x000000004a05c72c                _u_boot_list_2_cmd_2_mdio
 .u_boot_list_2_cmd_2_mii
                0x000000004a05c748       0x1c cmd/built-in.o
                0x000000004a05c748                _u_boot_list_2_cmd_2_mii
 .u_boot_list_2_cmd_2_mm
                0x000000004a05c764       0x1c cmd/built-in.o
                0x000000004a05c764                _u_boot_list_2_cmd_2_mm
 .u_boot_list_2_cmd_2_mmc
                0x000000004a05c780       0x1c cmd/built-in.o
                0x000000004a05c780                _u_boot_list_2_cmd_2_mmc
 .u_boot_list_2_cmd_2_mmcinfo
                0x000000004a05c79c       0x1c cmd/built-in.o
                0x000000004a05c79c                _u_boot_list_2_cmd_2_mmcinfo
 .u_boot_list_2_cmd_2_mw
                0x000000004a05c7b8       0x1c cmd/built-in.o
                0x000000004a05c7b8                _u_boot_list_2_cmd_2_mw
 .u_boot_list_2_cmd_2_nfs
                0x000000004a05c7d4       0x1c cmd/built-in.o
                0x000000004a05c7d4                _u_boot_list_2_cmd_2_nfs
 .u_boot_list_2_cmd_2_nm
                0x000000004a05c7f0       0x1c cmd/built-in.o
                0x000000004a05c7f0                _u_boot_list_2_cmd_2_nm
 .u_boot_list_2_cmd_2_part
                0x000000004a05c80c       0x1c cmd/built-in.o
                0x000000004a05c80c                _u_boot_list_2_cmd_2_part
 .u_boot_list_2_cmd_2_ping
                0x000000004a05c828       0x1c cmd/built-in.o
                0x000000004a05c828                _u_boot_list_2_cmd_2_ping
 .u_boot_list_2_cmd_2_poweroff
                0x000000004a05c844       0x1c cmd/built-in.o
                0x000000004a05c844                _u_boot_list_2_cmd_2_poweroff
 .u_boot_list_2_cmd_2_printenv
                0x000000004a05c860       0x1c cmd/built-in.o
                0x000000004a05c860                _u_boot_list_2_cmd_2_printenv
 .u_boot_list_2_cmd_2_pxe
                0x000000004a05c87c       0x1c cmd/built-in.o
                0x000000004a05c87c                _u_boot_list_2_cmd_2_pxe
 .u_boot_list_2_cmd_2_question_mark
                0x000000004a05c898       0x1c cmd/built-in.o
                0x000000004a05c898                _u_boot_list_2_cmd_2_question_mark
 .u_boot_list_2_cmd_2_reset
                0x000000004a05c8b4       0x1c cmd/built-in.o
                0x000000004a05c8b4                _u_boot_list_2_cmd_2_reset
 .u_boot_list_2_cmd_2_run
                0x000000004a05c8d0       0x1c cmd/built-in.o
                0x000000004a05c8d0                _u_boot_list_2_cmd_2_run
 .u_boot_list_2_cmd_2_save
                0x000000004a05c8ec       0x1c cmd/built-in.o
                0x000000004a05c8ec                _u_boot_list_2_cmd_2_save
 .u_boot_list_2_cmd_2_saveenv
                0x000000004a05c908       0x1c cmd/built-in.o
                0x000000004a05c908                _u_boot_list_2_cmd_2_saveenv
 .u_boot_list_2_cmd_2_scsi
                0x000000004a05c924       0x1c cmd/built-in.o
                0x000000004a05c924                _u_boot_list_2_cmd_2_scsi
 .u_boot_list_2_cmd_2_scsiboot
                0x000000004a05c940       0x1c cmd/built-in.o
                0x000000004a05c940                _u_boot_list_2_cmd_2_scsiboot
 .u_boot_list_2_cmd_2_setenv
                0x000000004a05c95c       0x1c cmd/built-in.o
                0x000000004a05c95c                _u_boot_list_2_cmd_2_setenv
 .u_boot_list_2_cmd_2_setexpr
                0x000000004a05c978       0x1c cmd/built-in.o
                0x000000004a05c978                _u_boot_list_2_cmd_2_setexpr
 .u_boot_list_2_cmd_2_showvar
                0x000000004a05c994       0x1c common/built-in.o
                0x000000004a05c994                _u_boot_list_2_cmd_2_showvar
 .u_boot_list_2_cmd_2_size
                0x000000004a05c9b0       0x1c cmd/built-in.o
                0x000000004a05c9b0                _u_boot_list_2_cmd_2_size
 .u_boot_list_2_cmd_2_sleep
                0x000000004a05c9cc       0x1c cmd/built-in.o
                0x000000004a05c9cc                _u_boot_list_2_cmd_2_sleep
 .u_boot_list_2_cmd_2_source
                0x000000004a05c9e8       0x1c cmd/built-in.o
                0x000000004a05c9e8                _u_boot_list_2_cmd_2_source
 .u_boot_list_2_cmd_2_sysboot
                0x000000004a05ca04       0x1c cmd/built-in.o
                0x000000004a05ca04                _u_boot_list_2_cmd_2_sysboot
 .u_boot_list_2_cmd_2_test
                0x000000004a05ca20       0x1c cmd/built-in.o
                0x000000004a05ca20                _u_boot_list_2_cmd_2_test
 .u_boot_list_2_cmd_2_tftpboot
                0x000000004a05ca3c       0x1c cmd/built-in.o
                0x000000004a05ca3c                _u_boot_list_2_cmd_2_tftpboot
 .u_boot_list_2_cmd_2_true
                0x000000004a05ca58       0x1c cmd/built-in.o
                0x000000004a05ca58                _u_boot_list_2_cmd_2_true
 .u_boot_list_2_cmd_2_usb
                0x000000004a05ca74       0x1c cmd/built-in.o
                0x000000004a05ca74                _u_boot_list_2_cmd_2_usb
 .u_boot_list_2_cmd_2_usbboot
                0x000000004a05ca90       0x1c cmd/built-in.o
                0x000000004a05ca90                _u_boot_list_2_cmd_2_usbboot
 .u_boot_list_2_cmd_2_version
                0x000000004a05caac       0x1c cmd/built-in.o
                0x000000004a05caac                _u_boot_list_2_cmd_2_version
 .u_boot_list_2_cmd_3
                0x000000004a05cac8        0x0 cmd/built-in.o
 .u_boot_list_2_cmd_3
                0x000000004a05cac8        0x0 common/built-in.o
 .u_boot_list_2_driver_1
                0x000000004a05cac8        0x0 drivers/built-in.o
 .u_boot_list_2_driver_2_ehci_sunxi
                0x000000004a05cac8       0x44 drivers/usb/host/built-in.o
                0x000000004a05cac8                _u_boot_list_2_driver_2_ehci_sunxi
 .u_boot_list_2_driver_2_eth_designware
                0x000000004a05cb0c       0x44 drivers/net/built-in.o
                0x000000004a05cb0c                _u_boot_list_2_driver_2_eth_designware
 .u_boot_list_2_driver_2_gpio_sunxi
                0x000000004a05cb50       0x44 drivers/gpio/built-in.o
                0x000000004a05cb50                _u_boot_list_2_driver_2_gpio_sunxi
 .u_boot_list_2_driver_2_ns16550_serial
                0x000000004a05cb94       0x44 drivers/serial/built-in.o
                0x000000004a05cb94                _u_boot_list_2_driver_2_ns16550_serial
 .u_boot_list_2_driver_2_root_driver
                0x000000004a05cbd8       0x44 drivers/built-in.o
                0x000000004a05cbd8                _u_boot_list_2_driver_2_root_driver
 .u_boot_list_2_driver_2_simple_bus_drv
                0x000000004a05cc1c       0x44 drivers/built-in.o
                0x000000004a05cc1c                _u_boot_list_2_driver_2_simple_bus_drv
 .u_boot_list_2_driver_2_usb_dev_generic_drv
                0x000000004a05cc60       0x44 drivers/usb/host/built-in.o
                0x000000004a05cc60                _u_boot_list_2_driver_2_usb_dev_generic_drv
 .u_boot_list_2_driver_2_usb_generic_hub
                0x000000004a05cca4       0x44 common/built-in.o
                0x000000004a05cca4                _u_boot_list_2_driver_2_usb_generic_hub
 .u_boot_list_2_driver_2_usb_kbd
                0x000000004a05cce8       0x44 common/built-in.o
                0x000000004a05cce8                _u_boot_list_2_driver_2_usb_kbd
 .u_boot_list_2_driver_2_usb_mass_storage
                0x000000004a05cd2c       0x44 common/built-in.o
                0x000000004a05cd2c                _u_boot_list_2_driver_2_usb_mass_storage
 .u_boot_list_2_driver_2_usb_ohci
                0x000000004a05cd70       0x44 drivers/usb/host/built-in.o
                0x000000004a05cd70                _u_boot_list_2_driver_2_usb_ohci
 .u_boot_list_2_driver_3
                0x000000004a05cdb4        0x0 drivers/built-in.o
 .u_boot_list_2_driver_info_1
                0x000000004a05cdb4        0x0 drivers/built-in.o
 .u_boot_list_2_driver_info_3
                0x000000004a05cdb4        0x0 drivers/built-in.o
 .u_boot_list_2_env_clbk_1
                0x000000004a05cdb4        0x0 common/built-in.o
 .u_boot_list_2_env_clbk_2_baudrate
                0x000000004a05cdb4        0x8 drivers/serial/built-in.o
                0x000000004a05cdb4                _u_boot_list_2_env_clbk_2_baudrate
 .u_boot_list_2_env_clbk_2_bootfile
                0x000000004a05cdbc        0x8 net/built-in.o
                0x000000004a05cdbc                _u_boot_list_2_env_clbk_2_bootfile
 .u_boot_list_2_env_clbk_2_callbacks
                0x000000004a05cdc4        0x8 common/built-in.o
                0x000000004a05cdc4                _u_boot_list_2_env_clbk_2_callbacks
 .u_boot_list_2_env_clbk_2_console
                0x000000004a05cdcc        0x8 common/built-in.o
                0x000000004a05cdcc                _u_boot_list_2_env_clbk_2_console
 .u_boot_list_2_env_clbk_2_ethaddr
                0x000000004a05cdd4        0x8 net/built-in.o
                0x000000004a05cdd4                _u_boot_list_2_env_clbk_2_ethaddr
 .u_boot_list_2_env_clbk_2_flags
                0x000000004a05cddc        0x8 common/built-in.o
                0x000000004a05cddc                _u_boot_list_2_env_clbk_2_flags
 .u_boot_list_2_env_clbk_2_gatewayip
                0x000000004a05cde4        0x8 net/built-in.o
                0x000000004a05cde4                _u_boot_list_2_env_clbk_2_gatewayip
 .u_boot_list_2_env_clbk_2_ipaddr
                0x000000004a05cdec        0x8 net/built-in.o
                0x000000004a05cdec                _u_boot_list_2_env_clbk_2_ipaddr
 .u_boot_list_2_env_clbk_2_loadaddr
                0x000000004a05cdf4        0x8 common/built-in.o
                0x000000004a05cdf4                _u_boot_list_2_env_clbk_2_loadaddr
 .u_boot_list_2_env_clbk_2_netmask
                0x000000004a05cdfc        0x8 net/built-in.o
                0x000000004a05cdfc                _u_boot_list_2_env_clbk_2_netmask
 .u_boot_list_2_env_clbk_2_nvlan
                0x000000004a05ce04        0x8 net/built-in.o
                0x000000004a05ce04                _u_boot_list_2_env_clbk_2_nvlan
 .u_boot_list_2_env_clbk_2_serverip
                0x000000004a05ce0c        0x8 net/built-in.o
                0x000000004a05ce0c                _u_boot_list_2_env_clbk_2_serverip
 .u_boot_list_2_env_clbk_2_vlan
                0x000000004a05ce14        0x8 net/built-in.o
                0x000000004a05ce14                _u_boot_list_2_env_clbk_2_vlan
 .u_boot_list_2_env_clbk_3
                0x000000004a05ce1c        0x0 common/built-in.o
 .u_boot_list_2_i2c_1
                0x000000004a05ce1c        0x0 cmd/built-in.o
 .u_boot_list_2_i2c_1
                0x000000004a05ce1c        0x0 drivers/i2c/built-in.o
 .u_boot_list_2_i2c_2_twsi0
                0x000000004a05ce1c       0x2c drivers/i2c/built-in.o
                0x000000004a05ce1c                _u_boot_list_2_i2c_2_twsi0
 .u_boot_list_2_i2c_3
                0x000000004a05ce48        0x0 cmd/built-in.o
 .u_boot_list_2_i2c_3
                0x000000004a05ce48        0x0 drivers/i2c/built-in.o
 .u_boot_list_2_part_driver_1
                0x000000004a05ce48        0x0 disk/built-in.o
 .u_boot_list_2_part_driver_2_a_efi
                0x000000004a05ce48       0x18 disk/built-in.o
                0x000000004a05ce48                _u_boot_list_2_part_driver_2_a_efi
 .u_boot_list_2_part_driver_2_dos
                0x000000004a05ce60       0x18 disk/built-in.o
                0x000000004a05ce60                _u_boot_list_2_part_driver_2_dos
 .u_boot_list_2_part_driver_2_iso
                0x000000004a05ce78       0x18 disk/built-in.o
                0x000000004a05ce78                _u_boot_list_2_part_driver_2_iso
 .u_boot_list_2_part_driver_3
                0x000000004a05ce90        0x0 disk/built-in.o
 .u_boot_list_2_pci_driver_entry_2_eth_designware
                0x000000004a05ce90        0x8 drivers/net/built-in.o
                0x000000004a05ce90                _u_boot_list_2_pci_driver_entry_2_eth_designware
 .u_boot_list_2_uclass_1
                0x000000004a05ce98        0x0 drivers/built-in.o
 .u_boot_list_2_uclass_2_ahci
                0x000000004a05ce98       0x48 drivers/built-in.o
                0x000000004a05ce98                _u_boot_list_2_uclass_2_ahci
 .u_boot_list_2_uclass_2_eth
                0x000000004a05cee0       0x48 net/built-in.o
                0x000000004a05cee0                _u_boot_list_2_uclass_2_eth
 .u_boot_list_2_uclass_2_gpio
                0x000000004a05cf28       0x48 drivers/gpio/built-in.o
                0x000000004a05cf28                _u_boot_list_2_uclass_2_gpio
 .u_boot_list_2_uclass_2_keyboard
                0x000000004a05cf70       0x48 drivers/built-in.o
                0x000000004a05cf70                _u_boot_list_2_uclass_2_keyboard
 .u_boot_list_2_uclass_2_root
                0x000000004a05cfb8       0x48 drivers/built-in.o
                0x000000004a05cfb8                _u_boot_list_2_uclass_2_root
 .u_boot_list_2_uclass_2_serial
                0x000000004a05d000       0x48 drivers/serial/built-in.o
                0x000000004a05d000                _u_boot_list_2_uclass_2_serial
 .u_boot_list_2_uclass_2_simple_bus
                0x000000004a05d048       0x48 drivers/built-in.o
                0x000000004a05d048                _u_boot_list_2_uclass_2_simple_bus
 .u_boot_list_2_uclass_2_usb
                0x000000004a05d090       0x48 drivers/usb/host/built-in.o
                0x000000004a05d090                _u_boot_list_2_uclass_2_usb
 .u_boot_list_2_uclass_2_usb_dev_generic
                0x000000004a05d0d8       0x48 drivers/usb/host/built-in.o
                0x000000004a05d0d8                _u_boot_list_2_uclass_2_usb_dev_generic
 .u_boot_list_2_uclass_2_usb_hub
                0x000000004a05d120       0x48 common/built-in.o
                0x000000004a05d120                _u_boot_list_2_uclass_2_usb_hub
 .u_boot_list_2_uclass_2_usb_mass_storage
                0x000000004a05d168       0x48 common/built-in.o
                0x000000004a05d168                _u_boot_list_2_uclass_2_usb_mass_storage
 .u_boot_list_2_uclass_3
                0x000000004a05d1b0        0x0 drivers/built-in.o
 .u_boot_list_2_usb_driver_entry_1
                0x000000004a05d1b0        0x0 drivers/usb/host/built-in.o
 .u_boot_list_2_usb_driver_entry_2_usb_generic_hub
                0x000000004a05d1b0        0x8 common/built-in.o
                0x000000004a05d1b0                _u_boot_list_2_usb_driver_entry_2_usb_generic_hub
 .u_boot_list_2_usb_driver_entry_2_usb_kbd
                0x000000004a05d1b8        0x8 common/built-in.o
                0x000000004a05d1b8                _u_boot_list_2_usb_driver_entry_2_usb_kbd
 .u_boot_list_2_usb_driver_entry_2_usb_mass_storage
                0x000000004a05d1c0        0x8 common/built-in.o
                0x000000004a05d1c0                _u_boot_list_2_usb_driver_entry_2_usb_mass_storage
 .u_boot_list_2_usb_driver_entry_3
                0x000000004a05d1c8        0x0 drivers/usb/host/built-in.o
                0x000000004a05d1c8                . = ALIGN (0x4)

.__efi_runtime_start
                0x000000004a05d1c8        0x0
 *(.__efi_runtime_start)
 .__efi_runtime_start
                0x000000004a05d1c8        0x0 arch/arm/lib/built-in.o

.efi_runtime    0x000000004a05d1c8      0x100
 *(efi_runtime_text)
 efi_runtime_text
                0x000000004a05d1c8       0x24 lib/built-in.o
                0x000000004a05d1c8                efi_reset_system
                0x000000004a05d1cc                efi_get_time
 *(efi_runtime_data)
 *fill*         0x000000004a05d1ec        0x4 
 efi_runtime_data
                0x000000004a05d1f0       0xd8 lib/built-in.o
                0x000000004a05d1f0                systab
                0x000000004a05d278                efi_runtime_services

.__efi_runtime_stop
                0x000000004a05d2c8        0x0
 *(.__efi_runtime_stop)
 .__efi_runtime_stop
                0x000000004a05d2c8        0x0 arch/arm/lib/built-in.o

.efi_runtime_rel_start
                0x000000004a05d2c8        0x0
 *(.__efi_runtime_rel_start)
 .__efi_runtime_rel_start
                0x000000004a05d2c8        0x0 arch/arm/lib/built-in.o

.efi_runtime_rel
                0x000000004a05d2c8       0x90
 *(.relefi_runtime_text)
 *(.relefi_runtime_data)
 .relefi_runtime_data
                0x000000004a05d2c8       0x90 arch/arm/cpu/armv7/start.o

.efi_runtime_rel_stop
                0x000000004a05d358        0x0
 *(.__efi_runtime_rel_stop)
 .__efi_runtime_rel_stop
                0x000000004a05d358        0x0 arch/arm/lib/built-in.o
                0x000000004a05d358                . = ALIGN (0x4)

.image_copy_end
                0x000000004a05d358        0x0
 *(.__image_copy_end)
 .__image_copy_end
                0x000000004a05d358        0x0 arch/arm/lib/built-in.o

.rel_dyn_start  0x000000004a05d358        0x0
 *(.__rel_dyn_start)
 .__rel_dyn_start
                0x000000004a05d358        0x0 arch/arm/lib/built-in.o

.rel.dyn        0x000000004a05d358     0x9f68
 *(.rel*)
 .rel.got       0x000000004a05d358        0x0 arch/arm/cpu/armv7/start.o
 .rel.plt       0x000000004a05d358        0x0 arch/arm/cpu/armv7/start.o
 .rel.iplt      0x000000004a05d358        0x0 arch/arm/cpu/armv7/start.o
 .rel.text      0x000000004a05d358       0x20 arch/arm/cpu/armv7/start.o
 .rel.text.get_gicd_base_address
                0x000000004a05d378        0x8 arch/arm/cpu/armv7/start.o
 .rel.text.armv7_init_nonsec
                0x000000004a05d380       0x20 arch/arm/cpu/armv7/start.o
 .rel.vectors   0x000000004a05d3a0       0x38 arch/arm/cpu/armv7/start.o
 .rel.text.relocate_vectors
                0x000000004a05d3d8       0x20 arch/arm/cpu/armv7/start.o
 .rel.text.boot_prep_linux
                0x000000004a05d3f8       0x18 arch/arm/cpu/armv7/start.o
 .rel.text.armv7_boot_nonsec
                0x000000004a05d410       0x18 arch/arm/cpu/armv7/start.o
 .rel.text.boot_jump_linux
                0x000000004a05d428       0x30 arch/arm/cpu/armv7/start.o
 .rel.text.boot_prep_vxworks
                0x000000004a05d458       0x10 arch/arm/cpu/armv7/start.o
 .rel.text.interrupt_init
                0x000000004a05d468        0x8 arch/arm/cpu/armv7/start.o
 .rel.text.bad_mode
                0x000000004a05d470        0x8 arch/arm/cpu/armv7/start.o
 .rel.text.show_regs
                0x000000004a05d478       0x60 arch/arm/cpu/armv7/start.o
 .rel.text.do_undefined_instruction
                0x000000004a05d4d8        0x8 arch/arm/cpu/armv7/start.o
 .rel.text.do_software_interrupt
                0x000000004a05d4e0        0x8 arch/arm/cpu/armv7/start.o
 .rel.text.do_prefetch_abort
                0x000000004a05d4e8        0x8 arch/arm/cpu/armv7/start.o
 .rel.text.do_data_abort
                0x000000004a05d4f0        0x8 arch/arm/cpu/armv7/start.o
 .rel.text.do_not_used
                0x000000004a05d4f8        0x8 arch/arm/cpu/armv7/start.o
 .rel.text.do_fiq
                0x000000004a05d500        0x8 arch/arm/cpu/armv7/start.o
 .rel.text.do_irq
                0x000000004a05d508        0x8 arch/arm/cpu/armv7/start.o
 .rel.text.do_reset
                0x000000004a05d510        0x8 arch/arm/cpu/armv7/start.o
 .rel.text.enable_caches
                0x000000004a05d518        0x0 arch/arm/cpu/armv7/start.o
 .rel.text.check_cache_range
                0x000000004a05d518        0x8 arch/arm/cpu/armv7/start.o
 .rel.text.fdt_psci
                0x000000004a05d520       0x80 arch/arm/cpu/armv7/start.o
 .rel.rodata    0x000000004a05d5a0      0x100 arch/arm/cpu/armv7/start.o
 .rel.text.print_cpuinfo
                0x000000004a05d6a0        0x8 arch/arm/cpu/armv7/start.o
 .rel.text.mctl_await_completion
                0x000000004a05d6a8        0x0 arch/arm/cpu/armv7/start.o
 .rel.text.sunxi_usb_phy_enable_squelch_detect
                0x000000004a05d6a8        0x0 arch/arm/cpu/armv7/start.o
 .rel.text.sunxi_usb_phy_init
                0x000000004a05d6a8        0x8 arch/arm/cpu/armv7/start.o
 .rel.text.sunxi_usb_phy_exit
                0x000000004a05d6b0        0x8 arch/arm/cpu/armv7/start.o
 .rel.text.sunxi_usb_phy_power_on
                0x000000004a05d6b8       0x10 arch/arm/cpu/armv7/start.o
 .rel.text.sunxi_usb_phy_power_off
                0x000000004a05d6c8        0x0 arch/arm/cpu/armv7/start.o
 .rel.text.sunxi_usb_phy_vbus_detect
                0x000000004a05d6c8        0x0 arch/arm/cpu/armv7/start.o
 .rel.text.sunxi_usb_phy_id_detect
                0x000000004a05d6c8        0x0 arch/arm/cpu/armv7/start.o
 .rel.text.sunxi_usb_phy_probe
                0x000000004a05d6c8       0x38 arch/arm/cpu/armv7/start.o
 .rel.text.sunxi_usb_phy_remove
                0x000000004a05d700        0x0 arch/arm/cpu/armv7/start.o
 .rel.text.pmic_bus_init
                0x000000004a05d700        0x0 arch/arm/cpu/armv7/start.o
 .rel.text.setup_environment
                0x000000004a05d700       0x28 arch/arm/cpu/armv7/start.o
 .rel.text.board_init
                0x000000004a05d728        0x8 arch/arm/cpu/armv7/start.o
 .rel.text.get_board_serial
                0x000000004a05d730        0x8 arch/arm/cpu/armv7/start.o
 .rel.text.misc_init_r
                0x000000004a05d738       0x38 arch/arm/cpu/armv7/start.o
 .rel.text.scsi_init
                0x000000004a05d770       0x10 arch/arm/cpu/armv7/start.o
 .rel.text.sunxi_dram_init
                0x000000004a05d780        0x0 arch/arm/cpu/armv7/start.o
 .rel.text.do_go
                0x000000004a05d780       0x10 arch/arm/cpu/armv7/start.o
 .rel.text.do_bootm
                0x000000004a05d790       0x18 arch/arm/cpu/armv7/start.o
 .rel.text.do_bootd
                0x000000004a05d7a8        0x8 arch/arm/cpu/armv7/start.o
 .rel.text.image_info
                0x000000004a05d7b0       0x40 arch/arm/cpu/armv7/start.o
 .rel.text.do_iminfo
                0x000000004a05d7f0        0x8 arch/arm/cpu/armv7/start.o
 .rel.text.bootm_maybe_autostart
                0x000000004a05d7f8       0x20 arch/arm/cpu/armv7/start.o
 .rel.text.do_help
                0x000000004a05d818       0x10 arch/arm/cpu/armv7/start.o
 .rel.text.do_version
                0x000000004a05d828       0x20 arch/arm/cpu/armv7/start.o
 .rel.text.source
                0x000000004a05d848       0x38 arch/arm/cpu/armv7/start.o
 .rel.text.do_source
                0x000000004a05d880        0x8 arch/arm/cpu/armv7/start.o
 .rel.text.print_num
                0x000000004a05d888        0x8 arch/arm/cpu/armv7/start.o
 .rel.text.do_bdinfo
                0x000000004a05d890       0x68 arch/arm/cpu/armv7/start.o
 .rel.text.bootefi_open_dp
                0x000000004a05d8f8        0x8 arch/arm/cpu/armv7/start.o
 .rel.text.do_bootefi_exec
                0x000000004a05d900       0x50 arch/arm/cpu/armv7/start.o
 .rel.text.do_bootefi
                0x000000004a05d950       0x10 arch/arm/cpu/armv7/start.o
 .rel.text.efi_set_bootdev
                0x000000004a05d960       0x38 arch/arm/cpu/armv7/start.o
 .rel.text.bootz_setup
                0x000000004a05d998        0x0 arch/arm/cpu/armv7/start.o
 .rel.text.do_bootz
                0x000000004a05d998       0x10 arch/arm/cpu/armv7/start.o
 .rel.text.do_coninfo
                0x000000004a05d9a8       0x28 arch/arm/cpu/armv7/start.o
 .rel.text.do_echo
                0x000000004a05d9d0        0x8 arch/arm/cpu/armv7/start.o
 .rel.text.valid_elf_image
                0x000000004a05d9d8       0x10 arch/arm/cpu/armv7/start.o
 .rel.text.do_bootelf
                0x000000004a05d9e8       0x28 arch/arm/cpu/armv7/start.o
 .rel.text.do_bootvx
                0x000000004a05da10       0xe0 arch/arm/cpu/armv7/start.o
 .rel.text.do_fat_fsinfo
                0x000000004a05daf0       0x10 arch/arm/cpu/armv7/start.o
 .rel.text.do_fat_fswrite
                0x000000004a05db00       0x18 arch/arm/cpu/armv7/start.o
 .rel.text.fdt_valid
                0x000000004a05db18       0x28 arch/arm/cpu/armv7/start.o
 .rel.text.is_printable_string
                0x000000004a05db40        0x8 arch/arm/cpu/armv7/start.o
 .rel.text.print_data
                0x000000004a05db48       0x58 arch/arm/cpu/armv7/start.o
 .rel.text.set_working_fdt_addr
                0x000000004a05dba0       0x10 arch/arm/cpu/armv7/start.o
 .rel.text.do_fdt
                0x000000004a05dbb0      0x260 arch/arm/cpu/armv7/start.o
 .rel.text.do_load_wrapper
                0x000000004a05de10        0x8 arch/arm/cpu/armv7/start.o
 .rel.text.gpio_get_description
                0x000000004a05de18       0x18 arch/arm/cpu/armv7/start.o
 .rel.text.do_gpio
                0x000000004a05de30       0x50 arch/arm/cpu/armv7/start.o
 .rel.text.do_edid
                0x000000004a05de80       0x18 arch/arm/cpu/armv7/start.o
 .rel.text.do_i2c
                0x000000004a05de98        0x8 arch/arm/cpu/armv7/start.o
 .rel.text.do_i2c_bus_speed
                0x000000004a05dea0       0x18 arch/arm/cpu/armv7/start.o
 .rel.text.do_i2c_probe
                0x000000004a05deb8       0x10 arch/arm/cpu/armv7/start.o
 .rel.text.do_i2c_bus_num
                0x000000004a05dec8       0x30 arch/arm/cpu/armv7/start.o
 .rel.text.do_i2c_show_bus
                0x000000004a05def8       0x28 arch/arm/cpu/armv7/start.o
 .rel.text.do_i2c_crc
                0x000000004a05df20       0x20 arch/arm/cpu/armv7/start.o
 .rel.text.mod_i2c_mem.isra.3
                0x000000004a05df40       0x60 arch/arm/cpu/armv7/start.o
 .rel.text.do_i2c_md
                0x000000004a05dfa0       0x58 arch/arm/cpu/armv7/start.o
 .rel.text.do_i2c_mw
                0x000000004a05dff8       0x10 arch/arm/cpu/armv7/start.o
 .rel.text.do_i2c_write
                0x000000004a05e008       0x18 arch/arm/cpu/armv7/start.o
 .rel.text.do_i2c_read
                0x000000004a05e020       0x10 arch/arm/cpu/armv7/start.o
 .rel.text.do_i2c_loop
                0x000000004a05e030       0x10 arch/arm/cpu/armv7/start.o
 .rel.text.binary_test
                0x000000004a05e040       0x70 arch/arm/cpu/armv7/start.o
 .rel.text.do_itest
                0x000000004a05e0b0       0x40 arch/arm/cpu/armv7/start.o
 .rel.text.bin_data_init
                0x000000004a05e0f0       0x18 arch/arm/cpu/armv7/start.o
 .rel.text.k_data_save
                0x000000004a05e108       0x30 arch/arm/cpu/armv7/start.o
 .rel.text.k_data_restore
                0x000000004a05e138       0x30 arch/arm/cpu/armv7/start.o
 .rel.text.load_serial_ymodem
                0x000000004a05e168       0x20 arch/arm/cpu/armv7/start.o
 .rel.text.bin_data_char
                0x000000004a05e188       0x10 arch/arm/cpu/armv7/start.o
 .rel.text.chk1.constprop.1
                0x000000004a05e198        0x8 arch/arm/cpu/armv7/start.o
 .rel.text.s1_sendpacket.constprop.2
                0x000000004a05e1a0       0x18 arch/arm/cpu/armv7/start.o
 .rel.text.load_serial
                0x000000004a05e1b8       0x68 arch/arm/cpu/armv7/start.o
 .rel.text.do_load_serial
                0x000000004a05e220       0x30 arch/arm/cpu/armv7/start.o
 .rel.text.do_load_serial_bin
                0x000000004a05e250       0xe8 arch/arm/cpu/armv7/start.o
 .rel.text.do_mem_mw
                0x000000004a05e338        0x8 arch/arm/cpu/armv7/start.o
 .rel.text.do_mem_md
                0x000000004a05e340       0x20 arch/arm/cpu/armv7/start.o
 .rel.text.do_mem_cmp
                0x000000004a05e360       0x38 arch/arm/cpu/armv7/start.o
 .rel.text.do_mem_base
                0x000000004a05e398       0x10 arch/arm/cpu/armv7/start.o
 .rel.text.do_mem_cp
                0x000000004a05e3a8       0x10 arch/arm/cpu/armv7/start.o
 .rel.text.do_mem_crc
                0x000000004a05e3b8        0x8 arch/arm/cpu/armv7/start.o
 .rel.text.mod_mem.isra.0
                0x000000004a05e3c0       0x48 arch/arm/cpu/armv7/start.o
 .rel.text.do_mii
                0x000000004a05e408      0x160 arch/arm/cpu/armv7/start.o
 .rel.text.do_mdio
                0x000000004a05e568       0x70 arch/arm/cpu/armv7/start.o
 .rel.text.do_mmcops
                0x000000004a05e5d8       0x18 arch/arm/cpu/armv7/start.o
 .rel.text.init_mmc_device
                0x000000004a05e5f0        0x8 arch/arm/cpu/armv7/start.o
 .rel.text.do_mmc_rescan
                0x000000004a05e5f8        0x8 arch/arm/cpu/armv7/start.o
 .rel.text.do_mmc_hwpartition
                0x000000004a05e600       0xb0 arch/arm/cpu/armv7/start.o
 .rel.text.do_mmc_dev
                0x000000004a05e6b0       0x38 arch/arm/cpu/armv7/start.o
 .rel.text.do_mmc_part
                0x000000004a05e6e8       0x10 arch/arm/cpu/armv7/start.o
 .rel.text.do_mmc_erase
                0x000000004a05e6f8       0x30 arch/arm/cpu/armv7/start.o
 .rel.text.do_mmc_write
                0x000000004a05e728       0x30 arch/arm/cpu/armv7/start.o
 .rel.text.do_mmc_read
                0x000000004a05e758       0x28 arch/arm/cpu/armv7/start.o
 .rel.text.do_mmcinfo
                0x000000004a05e780       0xf8 arch/arm/cpu/armv7/start.o
 .rel.text.do_mmc_setdsr
                0x000000004a05e878       0x28 arch/arm/cpu/armv7/start.o
 .rel.text.netboot_common
                0x000000004a05e8a0       0x98 arch/arm/cpu/armv7/start.o
 .rel.text.do_ping
                0x000000004a05e938       0x18 arch/arm/cpu/armv7/start.o
 .rel.text.do_part_list
                0x000000004a05e950       0x28 arch/arm/cpu/armv7/start.o
 .rel.text.do_part_start
                0x000000004a05e978       0x10 arch/arm/cpu/armv7/start.o
 .rel.text.do_part_size
                0x000000004a05e988       0x10 arch/arm/cpu/armv7/start.o
 .rel.text.do_part
                0x000000004a05e998       0x28 arch/arm/cpu/armv7/start.o
 .rel.text.do_pxe
                0x000000004a05e9c0       0x10 arch/arm/cpu/armv7/start.o
 .rel.text.label_print
                0x000000004a05e9d0        0x8 arch/arm/cpu/armv7/start.o
 .rel.text.do_get_tftp
                0x000000004a05e9d8        0x8 arch/arm/cpu/armv7/start.o
 .rel.text.from_env
                0x000000004a05e9e0        0x8 arch/arm/cpu/armv7/start.o
 .rel.text.get_string
                0x000000004a05e9e8        0x8 arch/arm/cpu/armv7/start.o
 .rel.text.get_token
                0x000000004a05e9f0        0x8 arch/arm/cpu/armv7/start.o
 .rel.text.parse_sliteral
                0x000000004a05e9f8        0x8 arch/arm/cpu/armv7/start.o
 .rel.text.parse_integer
                0x000000004a05ea00        0x8 arch/arm/cpu/armv7/start.o
 .rel.text.do_get_any
                0x000000004a05ea08       0x10 arch/arm/cpu/armv7/start.o
 .rel.text.do_get_fat
                0x000000004a05ea18       0x10 arch/arm/cpu/armv7/start.o
 .rel.text.do_get_ext2
                0x000000004a05ea28       0x10 arch/arm/cpu/armv7/start.o
 .rel.text.format_mac_pxe.constprop.6
                0x000000004a05ea38       0x10 arch/arm/cpu/armv7/start.o
 .rel.text.get_relfile
                0x000000004a05ea48       0x38 arch/arm/cpu/armv7/start.o
 .rel.text.get_pxe_file
                0x000000004a05ea80        0x8 arch/arm/cpu/armv7/start.o
 .rel.text.handle_include
                0x000000004a05ea88       0x10 arch/arm/cpu/armv7/start.o
 .rel.text.parse_pxefile_top
                0x000000004a05ea98      0x150 arch/arm/cpu/armv7/start.o
 .rel.text.get_pxelinux_path
                0x000000004a05ebe8       0x18 arch/arm/cpu/armv7/start.o
 .rel.text.do_pxe_get
                0x000000004a05ec00       0x48 arch/arm/cpu/armv7/start.o
 .rel.text.label_boot
                0x000000004a05ec48       0xf8 arch/arm/cpu/armv7/start.o
 .rel.text.handle_pxe_menu
                0x000000004a05ed40       0x18 arch/arm/cpu/armv7/start.o
 .rel.text.do_pxe_boot
                0x000000004a05ed58       0x38 arch/arm/cpu/armv7/start.o
 .rel.text.do_sysboot
                0x000000004a05ed90       0x80 arch/arm/cpu/armv7/start.o
 .rel.text.do_scsi
                0x000000004a05ee10       0xb0 arch/arm/cpu/armv7/start.o
 .rel.text.do_scsiboot
                0x000000004a05eec0        0x8 arch/arm/cpu/armv7/start.o
 .rel.text.common_diskboot
                0x000000004a05eec8       0x28 arch/arm/cpu/armv7/start.o
 .rel.text.substitute
                0x000000004a05eef0        0x8 arch/arm/cpu/armv7/start.o
 .rel.text.regex_sub
                0x000000004a05eef8       0x38 arch/arm/cpu/armv7/start.o
 .rel.text.do_setexpr
                0x000000004a05ef30       0x18 arch/arm/cpu/armv7/start.o
 .rel.text.do_test
                0x000000004a05ef48       0x70 arch/arm/cpu/armv7/start.o
 .rel.text.usb_get_class_desc
                0x000000004a05efb8       0x50 arch/arm/cpu/armv7/start.o
 .rel.text.usb_display_class_sub
                0x000000004a05f008       0xc8 arch/arm/cpu/armv7/start.o
 .rel.text.usb_show_tree_graph
                0x000000004a05f0d0       0x48 arch/arm/cpu/armv7/start.o
 .rel.text.usb_display_string
                0x000000004a05f118        0x8 arch/arm/cpu/armv7/start.o
 .rel.text.usb_display_config
                0x000000004a05f120       0xa8 arch/arm/cpu/armv7/start.o
 .rel.text.do_usbboot
                0x000000004a05f1c8        0x8 arch/arm/cpu/armv7/start.o
 .rel.text.usb_display_desc.part.1
                0x000000004a05f1d0       0x38 arch/arm/cpu/armv7/start.o
 .rel.text.do_usb_start
                0x000000004a05f208        0x8 arch/arm/cpu/armv7/start.o
 .rel.text.usb_show_tree
                0x000000004a05f210        0x8 arch/arm/cpu/armv7/start.o
 .rel.text.do_usb
                0x000000004a05f218      0x178 arch/arm/cpu/armv7/start.o
 .rel.text.do_imgextract
                0x000000004a05f390       0x90 arch/arm/cpu/armv7/start.o
 .rel.text.do_env_delete
                0x000000004a05f420       0x10 arch/arm/cpu/armv7/start.o
 .rel.text.do_env_exists
                0x000000004a05f430        0x8 arch/arm/cpu/armv7/start.o
 .rel.text.do_env_save
                0x000000004a05f438       0x10 arch/arm/cpu/armv7/start.o
 .rel.text.do_env
                0x000000004a05f448        0x8 arch/arm/cpu/armv7/start.o
 .rel.text.env_print
                0x000000004a05f450       0x18 arch/arm/cpu/armv7/start.o
 .rel.text.do_env_print
                0x000000004a05f468       0x10 arch/arm/cpu/armv7/start.o
 .rel.text.do_env_import
                0x000000004a05f478       0x58 arch/arm/cpu/armv7/start.o
 .rel.text.do_env_default
                0x000000004a05f4d0        0x8 arch/arm/cpu/armv7/start.o
 .rel.text._do_env_set.isra.0
                0x000000004a05f4d8       0x30 arch/arm/cpu/armv7/start.o
 .rel.text.get_env_id
                0x000000004a05f508        0x8 arch/arm/cpu/armv7/start.o
 .rel.text.setenv
                0x000000004a05f510        0x8 arch/arm/cpu/armv7/start.o
 .rel.text.setenv_hex
                0x000000004a05f518        0x8 arch/arm/cpu/armv7/start.o
 .rel.text.do_env_export
                0x000000004a05f520       0x40 arch/arm/cpu/armv7/start.o
 .rel.text.getenv_f
                0x000000004a05f560        0x8 arch/arm/cpu/armv7/start.o
 .rel.text.getenv
                0x000000004a05f568        0x8 arch/arm/cpu/armv7/start.o
 .rel.text.do_env_edit.part.2
                0x000000004a05f570       0x18 arch/arm/cpu/armv7/start.o
 .rel.rodata.op_table
                0x000000004a05f588       0x68 arch/arm/cpu/armv7/start.o
 .rel.rodata.reg_4_desc_tbl
                0x000000004a05f5f0       0x60 arch/arm/cpu/armv7/start.o
 .rel.rodata.desc_and_len_tbl
                0x000000004a05f650       0x30 arch/arm/cpu/armv7/start.o
 .rel.rodata.reg_5_desc_tbl
                0x000000004a05f680       0x60 arch/arm/cpu/armv7/start.o
 .rel.rodata.reg_2_desc_tbl
                0x000000004a05f6e0        0x8 arch/arm/cpu/armv7/start.o
 .rel.rodata.reg_0_5_desc_tbl
                0x000000004a05f6e8       0x30 arch/arm/cpu/armv7/start.o
 .rel.rodata.reg_3_desc_tbl
                0x000000004a05f718       0x18 arch/arm/cpu/armv7/start.o
 .rel.rodata.reg_0_desc_tbl
                0x000000004a05f730       0x50 arch/arm/cpu/armv7/start.o
 .rel.rodata.reg_1_desc_tbl
                0x000000004a05f780       0x80 arch/arm/cpu/armv7/start.o
 .rel.rodata.keywords
                0x000000004a05f800       0x90 arch/arm/cpu/armv7/start.o
 .rel.rodata.op_adv
                0x000000004a05f890       0x80 arch/arm/cpu/armv7/start.o
 .rel.rodata.CSWTCH.39
                0x000000004a05f910       0x28 arch/arm/cpu/armv7/start.o
 .rel.u_boot_list_2_cmd_2_go
                0x000000004a05f938       0x20 arch/arm/cpu/armv7/start.o
 .rel.u_boot_list_2_cmd_2_poweroff
                0x000000004a05f958       0x20 arch/arm/cpu/armv7/start.o
 .rel.u_boot_list_2_cmd_2_reset
                0x000000004a05f978       0x20 arch/arm/cpu/armv7/start.o
 .rel.u_boot_list_2_cmd_2_iminfo
                0x000000004a05f998       0x20 arch/arm/cpu/armv7/start.o
 .rel.u_boot_list_2_cmd_2_boot
                0x000000004a05f9b8       0x20 arch/arm/cpu/armv7/start.o
 .rel.u_boot_list_2_cmd_2_bootd
                0x000000004a05f9d8       0x20 arch/arm/cpu/armv7/start.o
 .rel.u_boot_list_2_cmd_2_bootm
                0x000000004a05f9f8       0x20 arch/arm/cpu/armv7/start.o
 .rel.data.cmd_bootm_sub
                0x000000004a05fa18       0xd8 arch/arm/cpu/armv7/start.o
 .rel.u_boot_list_2_cmd_2_question_mark
                0x000000004a05faf0       0x20 arch/arm/cpu/armv7/start.o
 .rel.u_boot_list_2_cmd_2_help
                0x000000004a05fb10       0x20 arch/arm/cpu/armv7/start.o
 .rel.u_boot_list_2_cmd_2_version
                0x000000004a05fb30       0x20 arch/arm/cpu/armv7/start.o
 .rel.u_boot_list_2_cmd_2_source
                0x000000004a05fb50       0x20 arch/arm/cpu/armv7/start.o
 .rel.u_boot_list_2_cmd_2_bdinfo
                0x000000004a05fb70       0x20 arch/arm/cpu/armv7/start.o
 .rel.data.loaded_image_info_obj
                0x000000004a05fb90       0x28 arch/arm/cpu/armv7/start.o
 .rel.u_boot_list_2_cmd_2_bootefi
                0x000000004a05fbb8       0x20 arch/arm/cpu/armv7/start.o
 .rel.data.bootefi_device_obj
                0x000000004a05fbd8       0x18 arch/arm/cpu/armv7/start.o
 .rel.data.loaded_image_info
                0x000000004a05fbf0       0x10 arch/arm/cpu/armv7/start.o
 .rel.u_boot_list_2_cmd_2_bootz
                0x000000004a05fc00       0x20 arch/arm/cpu/armv7/start.o
 .rel.u_boot_list_2_cmd_2_coninfo
                0x000000004a05fc20       0x20 arch/arm/cpu/armv7/start.o
 .rel.u_boot_list_2_cmd_2_echo
                0x000000004a05fc40       0x20 arch/arm/cpu/armv7/start.o
 .rel.u_boot_list_2_cmd_2_bootelf
                0x000000004a05fc60       0x20 arch/arm/cpu/armv7/start.o
 .rel.u_boot_list_2_cmd_2_bootvx
                0x000000004a05fc80       0x20 arch/arm/cpu/armv7/start.o
 .rel.u_boot_list_2_cmd_2_exit
                0x000000004a05fca0       0x20 arch/arm/cpu/armv7/start.o
 .rel.u_boot_list_2_cmd_2_ext4load
                0x000000004a05fcc0       0x20 arch/arm/cpu/armv7/start.o
 .rel.u_boot_list_2_cmd_2_ext4ls
                0x000000004a05fce0       0x20 arch/arm/cpu/armv7/start.o
 .rel.u_boot_list_2_cmd_2_ext4size
                0x000000004a05fd00       0x20 arch/arm/cpu/armv7/start.o
 .rel.u_boot_list_2_cmd_2_ext2ls
                0x000000004a05fd20       0x20 arch/arm/cpu/armv7/start.o
 .rel.u_boot_list_2_cmd_2_ext2load
                0x000000004a05fd40       0x20 arch/arm/cpu/armv7/start.o
 .rel.u_boot_list_2_cmd_2_fatinfo
                0x000000004a05fd60       0x20 arch/arm/cpu/armv7/start.o
 .rel.u_boot_list_2_cmd_2_fatwrite
                0x000000004a05fd80       0x20 arch/arm/cpu/armv7/start.o
 .rel.u_boot_list_2_cmd_2_fatload
                0x000000004a05fda0       0x20 arch/arm/cpu/armv7/start.o
 .rel.u_boot_list_2_cmd_2_fatls
                0x000000004a05fdc0       0x20 arch/arm/cpu/armv7/start.o
 .rel.u_boot_list_2_cmd_2_fatsize
                0x000000004a05fde0       0x20 arch/arm/cpu/armv7/start.o
 .rel.u_boot_list_2_cmd_2_fdt
                0x000000004a05fe00       0x20 arch/arm/cpu/armv7/start.o
 .rel.u_boot_list_2_cmd_2_save
                0x000000004a05fe20       0x20 arch/arm/cpu/armv7/start.o
 .rel.u_boot_list_2_cmd_2_ls
                0x000000004a05fe40       0x20 arch/arm/cpu/armv7/start.o
 .rel.u_boot_list_2_cmd_2_fstype
                0x000000004a05fe60       0x20 arch/arm/cpu/armv7/start.o
 .rel.u_boot_list_2_cmd_2_size
                0x000000004a05fe80       0x20 arch/arm/cpu/armv7/start.o
 .rel.u_boot_list_2_cmd_2_load
                0x000000004a05fea0       0x20 arch/arm/cpu/armv7/start.o
 .rel.u_boot_list_2_cmd_2_gpio
                0x000000004a05fec0       0x20 arch/arm/cpu/armv7/start.o
 .rel.data.cmd_i2c_sub
                0x000000004a05fee0      0x1c0 arch/arm/cpu/armv7/start.o
 .rel.u_boot_list_2_cmd_2_i2c
                0x000000004a0600a0       0x20 arch/arm/cpu/armv7/start.o
 .rel.u_boot_list_2_cmd_2_itest
                0x000000004a0600c0       0x20 arch/arm/cpu/armv7/start.o
 .rel.u_boot_list_2_cmd_2_loadb
                0x000000004a0600e0       0x20 arch/arm/cpu/armv7/start.o
 .rel.u_boot_list_2_cmd_2_loads
                0x000000004a060100       0x20 arch/arm/cpu/armv7/start.o
 .rel.u_boot_list_2_cmd_2_loadx
                0x000000004a060120       0x20 arch/arm/cpu/armv7/start.o
 .rel.u_boot_list_2_cmd_2_loady
                0x000000004a060140       0x20 arch/arm/cpu/armv7/start.o
 .rel.u_boot_list_2_cmd_2_base
                0x000000004a060160       0x20 arch/arm/cpu/armv7/start.o
 .rel.u_boot_list_2_cmd_2_cmp
                0x000000004a060180       0x20 arch/arm/cpu/armv7/start.o
 .rel.u_boot_list_2_cmd_2_nm
                0x000000004a0601a0       0x20 arch/arm/cpu/armv7/start.o
 .rel.u_boot_list_2_cmd_2_loop
                0x000000004a0601c0       0x20 arch/arm/cpu/armv7/start.o
 .rel.u_boot_list_2_cmd_2_cp
                0x000000004a0601e0       0x20 arch/arm/cpu/armv7/start.o
 .rel.u_boot_list_2_cmd_2_mm
                0x000000004a060200       0x20 arch/arm/cpu/armv7/start.o
 .rel.u_boot_list_2_cmd_2_crc32
                0x000000004a060220       0x20 arch/arm/cpu/armv7/start.o
 .rel.u_boot_list_2_cmd_2_md
                0x000000004a060240       0x20 arch/arm/cpu/armv7/start.o
 .rel.u_boot_list_2_cmd_2_mw
                0x000000004a060260       0x20 arch/arm/cpu/armv7/start.o
 .rel.u_boot_list_2_cmd_2_mii
                0x000000004a060280       0x20 arch/arm/cpu/armv7/start.o
 .rel.u_boot_list_2_cmd_2_mdio
                0x000000004a0602a0       0x20 arch/arm/cpu/armv7/start.o
 .rel.u_boot_list_2_cmd_2_sleep
                0x000000004a0602c0       0x20 arch/arm/cpu/armv7/start.o
 .rel.u_boot_list_2_cmd_2_mmcinfo
                0x000000004a0602e0       0x20 arch/arm/cpu/armv7/start.o
 .rel.data.cmd_mmc
                0x000000004a060300      0x140 arch/arm/cpu/armv7/start.o
 .rel.u_boot_list_2_cmd_2_mmc
                0x000000004a060440       0x20 arch/arm/cpu/armv7/start.o
 .rel.u_boot_list_2_cmd_2_ping
                0x000000004a060460       0x20 arch/arm/cpu/armv7/start.o
 .rel.u_boot_list_2_cmd_2_dhcp
                0x000000004a060480       0x20 arch/arm/cpu/armv7/start.o
 .rel.u_boot_list_2_cmd_2_bootp
                0x000000004a0604a0       0x20 arch/arm/cpu/armv7/start.o
 .rel.u_boot_list_2_cmd_2_tftpboot
                0x000000004a0604c0       0x20 arch/arm/cpu/armv7/start.o
 .rel.u_boot_list_2_cmd_2_nfs
                0x000000004a0604e0       0x20 arch/arm/cpu/armv7/start.o
 .rel.u_boot_list_2_cmd_2_part
                0x000000004a060500       0x20 arch/arm/cpu/armv7/start.o
 .rel.u_boot_list_2_cmd_2_pxe
                0x000000004a060520       0x20 arch/arm/cpu/armv7/start.o
 .rel.data.cmd_pxe_sub
                0x000000004a060540       0x40 arch/arm/cpu/armv7/start.o
 .rel.u_boot_list_2_cmd_2_sysboot
                0x000000004a060580       0x20 arch/arm/cpu/armv7/start.o
 .rel.data.pxe_default_paths
                0x000000004a0605a0       0x18 arch/arm/cpu/armv7/start.o
 .rel.u_boot_list_2_cmd_2_scsi
                0x000000004a0605b8       0x20 arch/arm/cpu/armv7/start.o
 .rel.u_boot_list_2_cmd_2_scsiboot
                0x000000004a0605d8       0x20 arch/arm/cpu/armv7/start.o
 .rel.u_boot_list_2_cmd_2_setexpr
                0x000000004a0605f8       0x20 arch/arm/cpu/armv7/start.o
 .rel.u_boot_list_2_cmd_2_test
                0x000000004a060618       0x20 arch/arm/cpu/armv7/start.o
 .rel.u_boot_list_2_cmd_2_true
                0x000000004a060638       0x18 arch/arm/cpu/armv7/start.o
 .rel.u_boot_list_2_cmd_2_false
                0x000000004a060650       0x18 arch/arm/cpu/armv7/start.o
 .rel.u_boot_list_2_cmd_2_usb
                0x000000004a060668       0x20 arch/arm/cpu/armv7/start.o
 .rel.u_boot_list_2_cmd_2_usbboot
                0x000000004a060688       0x20 arch/arm/cpu/armv7/start.o
 .rel.u_boot_list_2_cmd_2_imxtract
                0x000000004a0606a8       0x20 arch/arm/cpu/armv7/start.o
 .rel.u_boot_list_2_cmd_2_setenv
                0x000000004a0606c8       0x28 arch/arm/cpu/armv7/start.o
 .rel.u_boot_list_2_cmd_2_env
                0x000000004a0606f0       0x20 arch/arm/cpu/armv7/start.o
 .rel.u_boot_list_2_cmd_2_saveenv
                0x000000004a060710       0x20 arch/arm/cpu/armv7/start.o
 .rel.data.cmd_env_sub
                0x000000004a060730      0x140 arch/arm/cpu/armv7/start.o
 .rel.u_boot_list_2_cmd_2_printenv
                0x000000004a060870       0x28 arch/arm/cpu/armv7/start.o
 .rel.u_boot_list_2_cmd_2_editenv
                0x000000004a060898       0x28 arch/arm/cpu/armv7/start.o
 .rel.u_boot_list_2_cmd_2_run
                0x000000004a0608c0       0x28 arch/arm/cpu/armv7/start.o
 .rel.text.main_loop
                0x000000004a0608e8       0x10 arch/arm/cpu/armv7/start.o
 .rel.text.jumptable_init
                0x000000004a0608f8       0xd0 arch/arm/cpu/armv7/start.o
 .rel.text.hash_lookup_algo
                0x000000004a0609c8        0x0 arch/arm/cpu/armv7/start.o
 .rel.text.hash_progressive_lookup_algo
                0x000000004a0609c8        0x0 arch/arm/cpu/armv7/start.o
 .rel.text.hash_command
                0x000000004a0609c8        0x8 arch/arm/cpu/armv7/start.o
 .rel.text.mapset
                0x000000004a0609d0        0x8 arch/arm/cpu/armv7/start.o
 .rel.text.syntax_err
                0x000000004a0609d8        0x8 arch/arm/cpu/armv7/start.o
 .rel.text.xmalloc
                0x000000004a0609e0        0x8 arch/arm/cpu/armv7/start.o
 .rel.text.xrealloc
                0x000000004a0609e8        0x8 arch/arm/cpu/armv7/start.o
 .rel.text.done_word
                0x000000004a0609f0        0x8 arch/arm/cpu/armv7/start.o
 .rel.text.do_showvar
                0x000000004a0609f8       0x20 arch/arm/cpu/armv7/start.o
 .rel.text.is_assignment
                0x000000004a060a18        0x8 arch/arm/cpu/armv7/start.o
 .rel.text.file_get
                0x000000004a060a20       0x30 arch/arm/cpu/armv7/start.o
 .rel.text.b_addqchr
                0x000000004a060a50        0x8 arch/arm/cpu/armv7/start.o
 .rel.text.get_local_var
                0x000000004a060a58       0x20 arch/arm/cpu/armv7/start.o
 .rel.text.set_local_var
                0x000000004a060a78       0x20 arch/arm/cpu/armv7/start.o
 .rel.text.insert_var_value_sub
                0x000000004a060a98        0x8 arch/arm/cpu/armv7/start.o
 .rel.text.unset_local_var
                0x000000004a060aa0        0x0 arch/arm/cpu/armv7/start.o
 .rel.text.parse_string_outer
                0x000000004a060aa0       0x18 arch/arm/cpu/armv7/start.o
 .rel.text.run_list_real
                0x000000004a060ab8       0x40 arch/arm/cpu/armv7/start.o
 .rel.text.parse_stream_outer
                0x000000004a060af8       0x68 arch/arm/cpu/armv7/start.o
 .rel.text.parse_file_outer
                0x000000004a060b60       0x10 arch/arm/cpu/armv7/start.o
 .rel.text.u_boot_hush_start
                0x000000004a060b70       0x18 arch/arm/cpu/armv7/start.o
 .rel.text.bootdelay_process
                0x000000004a060b88       0x38 arch/arm/cpu/armv7/start.o
 .rel.text.autoboot_command
                0x000000004a060bc0       0x20 arch/arm/cpu/armv7/start.o
 .rel.text.setup_mon_len
                0x000000004a060be0       0x10 arch/arm/cpu/armv7/start.o
 .rel.text.announce_dram_init
                0x000000004a060bf0        0x8 arch/arm/cpu/armv7/start.o
 .rel.text.init_func_i2c
                0x000000004a060bf8       0x10 arch/arm/cpu/armv7/start.o
 .rel.text.init_baud_rate
                0x000000004a060c08        0x8 arch/arm/cpu/armv7/start.o
 .rel.text.show_dram_config
                0x000000004a060c10        0x8 arch/arm/cpu/armv7/start.o
 .rel.text.board_init_f
                0x000000004a060c18        0x8 arch/arm/cpu/armv7/start.o
 .rel.text.initr_net
                0x000000004a060c20        0x8 arch/arm/cpu/armv7/start.o
 .rel.text.initr_scsi
                0x000000004a060c28        0x8 arch/arm/cpu/armv7/start.o
 .rel.text.initr_ethaddr
                0x000000004a060c30        0x8 arch/arm/cpu/armv7/start.o
 .rel.text.initr_env
                0x000000004a060c38       0x20 arch/arm/cpu/armv7/start.o
 .rel.text.initr_mmc
                0x000000004a060c58        0x8 arch/arm/cpu/armv7/start.o
 .rel.text.initr_reloc_global_data
                0x000000004a060c60       0x18 arch/arm/cpu/armv7/start.o
 .rel.text.board_init_r
                0x000000004a060c78        0x8 arch/arm/cpu/armv7/start.o
 .rel.text.show_board_info
                0x000000004a060c80       0x10 arch/arm/cpu/armv7/start.o
 .rel.text.bootm_find_images
                0x000000004a060c90       0x18 arch/arm/cpu/armv7/start.o
 .rel.text.bootm_decomp_image
                0x000000004a060ca8       0x48 arch/arm/cpu/armv7/start.o
 .rel.text.do_bootm_states
                0x000000004a060cf0       0xb8 arch/arm/cpu/armv7/start.o
 .rel.text.do_bootm_rtems
                0x000000004a060da8        0x8 arch/arm/cpu/armv7/start.o
 .rel.text.do_bootm_plan9
                0x000000004a060db0       0x18 arch/arm/cpu/armv7/start.o
 .rel.text.do_bootm_standalone
                0x000000004a060dc8       0x18 arch/arm/cpu/armv7/start.o
 .rel.text.do_bootm_qnxelf
                0x000000004a060de0        0x8 arch/arm/cpu/armv7/start.o
 .rel.text.do_bootm_netbsd
                0x000000004a060de8       0x18 arch/arm/cpu/armv7/start.o
 .rel.text.do_bootvx_fdt
                0x000000004a060e00       0x38 arch/arm/cpu/armv7/start.o
 .rel.text.bootm_os_get_boot_func
                0x000000004a060e38        0x8 arch/arm/cpu/armv7/start.o
 .rel.text.regex_callback
                0x000000004a060e40       0x10 arch/arm/cpu/armv7/start.o
 .rel.text.env_attr_lookup
                0x000000004a060e50        0x8 arch/arm/cpu/armv7/start.o
 .rel.text.find_env_callback
                0x000000004a060e58       0x10 arch/arm/cpu/armv7/start.o
 .rel.text.on_callbacks
                0x000000004a060e68       0x20 arch/arm/cpu/armv7/start.o
 .rel.text.set_callback
                0x000000004a060e88        0x8 arch/arm/cpu/armv7/start.o
 .rel.text.env_callback_init
                0x000000004a060e90       0x20 arch/arm/cpu/armv7/start.o
 .rel.text.skip_num
                0x000000004a060eb0        0x8 arch/arm/cpu/armv7/start.o
 .rel.text.on_flags
                0x000000004a060eb8       0x20 arch/arm/cpu/armv7/start.o
 .rel.text.env_flags_parse_vartype
                0x000000004a060ed8       0x10 arch/arm/cpu/armv7/start.o
 .rel.text.env_flags_parse_varaccess
                0x000000004a060ee8       0x10 arch/arm/cpu/armv7/start.o
 .rel.text.set_flags
                0x000000004a060ef8       0x10 arch/arm/cpu/armv7/start.o
 .rel.text.env_flags_parse_varaccess_from_binflags
                0x000000004a060f08        0x0 arch/arm/cpu/armv7/start.o
 .rel.text.env_flags_init
                0x000000004a060f08       0x30 arch/arm/cpu/armv7/start.o
 .rel.text.env_flags_validate
                0x000000004a060f38       0x68 arch/arm/cpu/armv7/start.o
 .rel.text.env_init
                0x000000004a060fa0        0x8 arch/arm/cpu/armv7/start.o
 .rel.text.saveenv
                0x000000004a060fa8       0x38 arch/arm/cpu/armv7/start.o
 .rel.text.env_relocate_spec
                0x000000004a060fe0       0x18 arch/arm/cpu/armv7/start.o
 .rel.text.of_bus_default_count_cells
                0x000000004a060ff8        0x8 arch/arm/cpu/armv7/start.o
 .rel.text.fdt_find_or_add_subnode
                0x000000004a061000       0x10 arch/arm/cpu/armv7/start.o
 .rel.text.fdt_root
                0x000000004a061010       0x20 arch/arm/cpu/armv7/start.o
 .rel.text.fdt_initrd
                0x000000004a061030       0x30 arch/arm/cpu/armv7/start.o
 .rel.text.fdt_chosen
                0x000000004a061060       0x30 arch/arm/cpu/armv7/start.o
 .rel.text.do_fixup_by_path
                0x000000004a061090        0x8 arch/arm/cpu/armv7/start.o
 .rel.text.fdt_fixup_memory_banks
                0x000000004a061098       0x38 arch/arm/cpu/armv7/start.o
 .rel.text.fdt_fixup_ethernet
                0x000000004a0610d0       0x30 arch/arm/cpu/armv7/start.o
 .rel.text.fdt_del_node_and_alias
                0x000000004a061100        0x0 arch/arm/cpu/armv7/start.o
 .rel.text.fdt_translate_address
                0x000000004a061100       0x20 arch/arm/cpu/armv7/start.o
 .rel.text.fdt_node_offset_by_compat_reg
                0x000000004a061120        0x0 arch/arm/cpu/armv7/start.o
 .rel.text.fdt_set_phandle
                0x000000004a061120        0x0 arch/arm/cpu/armv7/start.o
 .rel.text.fdt_create_phandle
                0x000000004a061120        0x0 arch/arm/cpu/armv7/start.o
 .rel.text.fdt_set_node_status
                0x000000004a061120        0x0 arch/arm/cpu/armv7/start.o
 .rel.text.fdt_add_edid
                0x000000004a061120        0x0 arch/arm/cpu/armv7/start.o
 .rel.text.fdt_verify_alias_address
                0x000000004a061120        0x0 arch/arm/cpu/armv7/start.o
 .rel.text.fdt_get_base_address
                0x000000004a061120        0x0 arch/arm/cpu/armv7/start.o
 .rel.text.fdt_read_range
                0x000000004a061120        0x0 arch/arm/cpu/armv7/start.o
 .rel.text.fdt_setup_simplefb_node
                0x000000004a061120       0x40 arch/arm/cpu/armv7/start.o
 .rel.text.fdt_fixup_display
                0x000000004a061160        0x0 arch/arm/cpu/armv7/start.o
 .rel.text.miiphy_get_dev_by_name
                0x000000004a061160       0x10 arch/arm/cpu/armv7/start.o
 .rel.text.miiphy_init
                0x000000004a061170       0x10 arch/arm/cpu/armv7/start.o
 .rel.text.mdio_register
                0x000000004a061180       0x18 arch/arm/cpu/armv7/start.o
 .rel.text.mdio_register_seq
                0x000000004a061198        0x0 arch/arm/cpu/armv7/start.o
 .rel.text.mdio_unregister
                0x000000004a061198        0x8 arch/arm/cpu/armv7/start.o
 .rel.text.mdio_list_devices
                0x000000004a0611a0       0x28 arch/arm/cpu/armv7/start.o
 .rel.text.miiphy_set_current_dev
                0x000000004a0611c8       0x10 arch/arm/cpu/armv7/start.o
 .rel.text.miiphy_get_active_dev
                0x000000004a0611d8        0x8 arch/arm/cpu/armv7/start.o
 .rel.text.mdio_get_current_dev
                0x000000004a0611e0        0x8 arch/arm/cpu/armv7/start.o
 .rel.text.mdio_phydev_for_ethname
                0x000000004a0611e8       0x10 arch/arm/cpu/armv7/start.o
 .rel.text.miiphy_get_current_dev
                0x000000004a0611f8        0x8 arch/arm/cpu/armv7/start.o
 .rel.text.miiphy_listdev
                0x000000004a061200       0x30 arch/arm/cpu/armv7/start.o
 .rel.text.miiphy_is_1000base_x
                0x000000004a061230        0x8 arch/arm/cpu/armv7/start.o
 .rel.text.miiphy_speed
                0x000000004a061238       0x28 arch/arm/cpu/armv7/start.o
 .rel.text.miiphy_duplex
                0x000000004a061260       0x30 arch/arm/cpu/armv7/start.o
 .rel.text.get_descriptor_len
                0x000000004a061290       0x10 arch/arm/cpu/armv7/start.o
 .rel.text.usb_string_sub
                0x000000004a0612a0        0x8 arch/arm/cpu/armv7/start.o
 .rel.text.usb_get_configuration_len
                0x000000004a0612a8       0x10 arch/arm/cpu/armv7/start.o
 .rel.text.usb_set_interface
                0x000000004a0612b8        0x8 arch/arm/cpu/armv7/start.o
 .rel.text.usb_select_config
                0x000000004a0612c0       0x70 arch/arm/cpu/armv7/start.o
 .rel.text.usb_setup_device
                0x000000004a061330       0x18 arch/arm/cpu/armv7/start.o
 .rel.text.usb_find_usb2_hub_address_port
                0x000000004a061348        0x8 arch/arm/cpu/armv7/start.o
 .rel.text.usb_hub_reset
                0x000000004a061350       0x10 arch/arm/cpu/armv7/start.o
 .rel.text.usb_hub_port_connect_change
                0x000000004a061360        0x8 arch/arm/cpu/armv7/start.o
 .rel.text.usb_hub_configure
                0x000000004a061368       0x40 arch/arm/cpu/armv7/start.o
 .rel.text.usb_stor_BBB_transport
                0x000000004a0613a8       0x10 arch/arm/cpu/armv7/start.o
 .rel.text.usb_stor_CB_comdat
                0x000000004a0613b8        0x8 arch/arm/cpu/armv7/start.o
 .rel.text.usb_stor_CBI_get_status.isra.2
                0x000000004a0613c0        0x8 arch/arm/cpu/armv7/start.o
 .rel.text.usb_stor_CB_transport
                0x000000004a0613c8       0x10 arch/arm/cpu/armv7/start.o
 .rel.text.usb_request_sense.constprop.10
                0x000000004a0613d8        0x8 arch/arm/cpu/armv7/start.o
 .rel.text.usb_stor_read
                0x000000004a0613e0       0x10 arch/arm/cpu/armv7/start.o
 .rel.text.usb_stor_write
                0x000000004a0613f0       0x10 arch/arm/cpu/armv7/start.o
 .rel.text.usb_stor_info
                0x000000004a061400       0x20 arch/arm/cpu/armv7/start.o
 .rel.text.usb_stor_reset
                0x000000004a061420        0x8 arch/arm/cpu/armv7/start.o
 .rel.text.usb_stor_scan
                0x000000004a061428       0x18 arch/arm/cpu/armv7/start.o
 .rel.text.usb_storage_probe
                0x000000004a061440       0x38 arch/arm/cpu/armv7/start.o
 .rel.text.usb_stor_get_info
                0x000000004a061478       0x20 arch/arm/cpu/armv7/start.o
 .rel.text.usb_mass_storage_probe
                0x000000004a061498       0x30 arch/arm/cpu/armv7/start.o
 .rel.text.iomux_printdevs
                0x000000004a0614c8        0x0 arch/arm/cpu/armv7/start.o
 .rel.text.iomux_doenv
                0x000000004a0614c8       0x10 arch/arm/cpu/armv7/start.o
 .rel.text.snip
                0x000000004a0614d8        0x8 arch/arm/cpu/armv7/start.o
 .rel.text.edid_check_info
                0x000000004a0614e0        0x8 arch/arm/cpu/armv7/start.o
 .rel.text.edid_print_info
                0x000000004a0614e8      0x1b0 arch/arm/cpu/armv7/start.o
 .rel.text.menu_get_choice
                0x000000004a061698       0x18 arch/arm/cpu/armv7/start.o
 .rel.text.scsi_write
                0x000000004a0616b0        0x8 arch/arm/cpu/armv7/start.o
 .rel.text.scsi_read
                0x000000004a0616b8        0x8 arch/arm/cpu/armv7/start.o
 .rel.text.scsi_scan
                0x000000004a0616c0       0x68 arch/arm/cpu/armv7/start.o
 .rel.text.usb_kbd_remove
                0x000000004a061728       0x20 arch/arm/cpu/armv7/start.o
 .rel.text.usb_kbd_translate.part.0
                0x000000004a061748       0x20 arch/arm/cpu/armv7/start.o
 .rel.text.usb_kbd_probe
                0x000000004a061768       0x38 arch/arm/cpu/armv7/start.o
 .rel.text.usb_kbd_getc
                0x000000004a0617a0        0x8 arch/arm/cpu/armv7/start.o
 .rel.text.usb_kbd_testc
                0x000000004a0617a8       0x18 arch/arm/cpu/armv7/start.o
 .rel.text.env_get_addr
                0x000000004a0617c0        0x8 arch/arm/cpu/armv7/start.o
 .rel.text.env_get_char
                0x000000004a0617c8        0x8 arch/arm/cpu/armv7/start.o
 .rel.text.set_default_env
                0x000000004a0617d0       0x40 arch/arm/cpu/armv7/start.o
 .rel.text.set_default_vars
                0x000000004a061810       0x10 arch/arm/cpu/armv7/start.o
 .rel.text.env_import
                0x000000004a061820       0x38 arch/arm/cpu/armv7/start.o
 .rel.text.env_export
                0x000000004a061858       0x28 arch/arm/cpu/armv7/start.o
 .rel.text.env_relocate
                0x000000004a061880        0x8 arch/arm/cpu/armv7/start.o
 .rel.text.env_complete
                0x000000004a061888       0x18 arch/arm/cpu/armv7/start.o
 .rel.text.console_tstc
                0x000000004a0618a0       0x20 arch/arm/cpu/armv7/start.o
 .rel.text.console_putc
                0x000000004a0618c0       0x10 arch/arm/cpu/armv7/start.o
 .rel.text.console_puts
                0x000000004a0618d0       0x10 arch/arm/cpu/armv7/start.o
 .rel.text.on_console
                0x000000004a0618e0       0x20 arch/arm/cpu/armv7/start.o
 .rel.text.console_getc.isra.0
                0x000000004a061900        0x8 arch/arm/cpu/armv7/start.o
 .rel.text.getc
                0x000000004a061908        0x8 arch/arm/cpu/armv7/start.o
 .rel.text.print_pre_console_buffer
                0x000000004a061910       0x18 arch/arm/cpu/armv7/start.o
 .rel.text.fgetc
                0x000000004a061928        0x0 arch/arm/cpu/armv7/start.o
 .rel.text.ctrlc
                0x000000004a061928       0x10 arch/arm/cpu/armv7/start.o
 .rel.text.confirm_yesno
                0x000000004a061938        0x0 arch/arm/cpu/armv7/start.o
 .rel.text.disable_ctrlc
                0x000000004a061938        0x8 arch/arm/cpu/armv7/start.o
 .rel.text.had_ctrlc
                0x000000004a061940        0x8 arch/arm/cpu/armv7/start.o
 .rel.text.clear_ctrlc
                0x000000004a061948        0x8 arch/arm/cpu/armv7/start.o
 .rel.text.console_assign
                0x000000004a061950       0x30 arch/arm/cpu/armv7/start.o
 .rel.text.stdio_print_current_devices
                0x000000004a061980       0x40 arch/arm/cpu/armv7/start.o
 .rel.text.console_init_r
                0x000000004a0619c0       0x48 arch/arm/cpu/armv7/start.o
 .rel.text.sbrk
                0x000000004a061a08       0x18 arch/arm/cpu/armv7/start.o
 .rel.text.mem_malloc_init
                0x000000004a061a20       0x18 arch/arm/cpu/armv7/start.o
 .rel.text.malloc_trim
                0x000000004a061a38       0x18 arch/arm/cpu/armv7/start.o
 .rel.text.free
                0x000000004a061a50       0x18 arch/arm/cpu/armv7/start.o
 .rel.text.malloc
                0x000000004a061a68       0x40 arch/arm/cpu/armv7/start.o
 .rel.text.realloc
                0x000000004a061aa8       0x10 arch/arm/cpu/armv7/start.o
 .rel.text.mallopt
                0x000000004a061ab8        0x0 arch/arm/cpu/armv7/start.o
 .rel.text.on_loadaddr
                0x000000004a061ab8        0x8 arch/arm/cpu/armv7/start.o
 .rel.text.getenv_bootm_low
                0x000000004a061ac0        0x8 arch/arm/cpu/armv7/start.o
 .rel.text.getenv_bootm_size
                0x000000004a061ac8       0x10 arch/arm/cpu/armv7/start.o
 .rel.text.getenv_bootm_mapsize
                0x000000004a061ad8        0x8 arch/arm/cpu/armv7/start.o
 .rel.text.genimg_print_size
                0x000000004a061ae0       0x10 arch/arm/cpu/armv7/start.o
 .rel.text.genimg_get_short_name
                0x000000004a061af0        0x0 arch/arm/cpu/armv7/start.o
 .rel.text.genimg_get_cat_name
                0x000000004a061af0        0x0 arch/arm/cpu/armv7/start.o
 .rel.text.genimg_get_cat_short_name
                0x000000004a061af0        0x0 arch/arm/cpu/armv7/start.o
 .rel.text.genimg_get_cat_count
                0x000000004a061af0        0x0 arch/arm/cpu/armv7/start.o
 .rel.text.genimg_get_cat_desc
                0x000000004a061af0        0x0 arch/arm/cpu/armv7/start.o
 .rel.text.genimg_get_os_name
                0x000000004a061af0       0x10 arch/arm/cpu/armv7/start.o
 .rel.text.genimg_get_arch_name
                0x000000004a061b00       0x10 arch/arm/cpu/armv7/start.o
 .rel.text.genimg_get_type_name
                0x000000004a061b10       0x10 arch/arm/cpu/armv7/start.o
 .rel.text.genimg_get_type_short_name
                0x000000004a061b20        0x0 arch/arm/cpu/armv7/start.o
 .rel.text.genimg_get_comp_name
                0x000000004a061b20       0x10 arch/arm/cpu/armv7/start.o
 .rel.text.image_print_contents
                0x000000004a061b30       0x58 arch/arm/cpu/armv7/start.o
 .rel.text.genimg_get_comp_short_name
                0x000000004a061b88        0x0 arch/arm/cpu/armv7/start.o
 .rel.text.genimg_get_os_short_name
                0x000000004a061b88        0x0 arch/arm/cpu/armv7/start.o
 .rel.text.genimg_get_arch_short_name
                0x000000004a061b88        0x0 arch/arm/cpu/armv7/start.o
 .rel.text.genimg_get_os_id
                0x000000004a061b88        0x0 arch/arm/cpu/armv7/start.o
 .rel.text.genimg_get_arch_id
                0x000000004a061b88        0x0 arch/arm/cpu/armv7/start.o
 .rel.text.genimg_get_type_id
                0x000000004a061b88        0x0 arch/arm/cpu/armv7/start.o
 .rel.text.genimg_get_comp_id
                0x000000004a061b88        0x0 arch/arm/cpu/armv7/start.o
 .rel.text.genimg_get_kernel_addr_fit
                0x000000004a061b88        0x8 arch/arm/cpu/armv7/start.o
 .rel.text.boot_get_ramdisk
                0x000000004a061b90       0x50 arch/arm/cpu/armv7/start.o
 .rel.text.boot_ramdisk_high
                0x000000004a061be0       0x20 arch/arm/cpu/armv7/start.o
 .rel.text.fdt_error
                0x000000004a061c00       0x10 arch/arm/cpu/armv7/start.o
 .rel.text.boot_fdt_add_mem_rsv_regions
                0x000000004a061c10        0x8 arch/arm/cpu/armv7/start.o
 .rel.text.boot_relocate_fdt
                0x000000004a061c18       0x40 arch/arm/cpu/armv7/start.o
 .rel.text.boot_get_fdt
                0x000000004a061c58       0x80 arch/arm/cpu/armv7/start.o
 .rel.text.image_setup_libfdt
                0x000000004a061cd8       0x28 arch/arm/cpu/armv7/start.o
 .rel.text.stdio_get_list
                0x000000004a061d00        0x8 arch/arm/cpu/armv7/start.o
 .rel.text.stdio_get_by_name
                0x000000004a061d08        0x8 arch/arm/cpu/armv7/start.o
 .rel.text.stdio_register_dev
                0x000000004a061d10        0x8 arch/arm/cpu/armv7/start.o
 .rel.text.stdio_deregister_dev
                0x000000004a061d18       0x18 arch/arm/cpu/armv7/start.o
 .rel.text.stdio_init_tables
                0x000000004a061d30        0x8 arch/arm/cpu/armv7/start.o
 .rel.text.stdio_add_devices
                0x000000004a061d38       0x50 arch/arm/cpu/armv7/start.o
 .rel.text.cli_simple_parse_line
                0x000000004a061d88        0x0 arch/arm/cpu/armv7/start.o
 .rel.text.cli_simple_run_command
                0x000000004a061d88        0x0 arch/arm/cpu/armv7/start.o
 .rel.text.cli_simple_loop
                0x000000004a061d88        0x0 arch/arm/cpu/armv7/start.o
 .rel.text.do_run
                0x000000004a061d88        0x8 arch/arm/cpu/armv7/start.o
 .rel.text.cli_process_fdt
                0x000000004a061d90       0x10 arch/arm/cpu/armv7/start.o
 .rel.text.cli_secure_boot_cmd
                0x000000004a061da0       0x18 arch/arm/cpu/armv7/start.o
 .rel.text.delete_char.part.0
                0x000000004a061db8       0x10 arch/arm/cpu/armv7/start.o
 .rel.text.cread_add_char
                0x000000004a061dc8        0x8 arch/arm/cpu/armv7/start.o
 .rel.text.cli_readline_into_buffer
                0x000000004a061dd0      0x178 arch/arm/cpu/armv7/start.o
 .rel.text.cli_readline
                0x000000004a061f48        0x8 arch/arm/cpu/armv7/start.o
 .rel.text.find_cmd
                0x000000004a061f50       0x10 arch/arm/cpu/armv7/start.o
 .rel.text.cmd_usage
                0x000000004a061f60       0x18 arch/arm/cpu/armv7/start.o
 .rel.text._do_help
                0x000000004a061f78       0x10 arch/arm/cpu/armv7/start.o
 .rel.text.var_complete
                0x000000004a061f88       0x10 arch/arm/cpu/armv7/start.o
 .rel.text.cmd_auto_complete
                0x000000004a061f98       0x48 arch/arm/cpu/armv7/start.o
 .rel.text.cmd_get_data_size
                0x000000004a061fe0        0x8 arch/arm/cpu/armv7/start.o
 .rel.text.cmd_process
                0x000000004a061fe8       0x18 arch/arm/cpu/armv7/start.o
 .rel.text.cmd_process_error
                0x000000004a062000        0x8 arch/arm/cpu/armv7/start.o
 .rel.text.srec_decode
                0x000000004a062008       0x50 arch/arm/cpu/armv7/start.o
 .rel.text.xyzModem_get_hdr
                0x000000004a062058       0x30 arch/arm/cpu/armv7/start.o
 .rel.text.xyzModem_stream_open
                0x000000004a062088       0x10 arch/arm/cpu/armv7/start.o
 .rel.text.xyzModem_stream_read
                0x000000004a062098        0x8 arch/arm/cpu/armv7/start.o
 .rel.text.xyzModem_stream_close
                0x000000004a0620a0       0x20 arch/arm/cpu/armv7/start.o
 .rel.text.xyzModem_stream_terminate
                0x000000004a0620c0        0x8 arch/arm/cpu/armv7/start.o
 .rel.text.xyzModem_error
                0x000000004a0620c8       0x10 arch/arm/cpu/armv7/start.o
 .rel.rodata.init_sequence_f
                0x000000004a0620d8      0x138 arch/arm/cpu/armv7/start.o
 .rel.rodata.boot_os
                0x000000004a062210       0x38 arch/arm/cpu/armv7/start.o
 .rel.rodata.usb_hub_ids
                0x000000004a062248        0x8 arch/arm/cpu/armv7/start.o
 .rel.rodata.usb_mass_storage_ids
                0x000000004a062250        0x8 arch/arm/cpu/armv7/start.o
 .rel.rodata.usb_kbd_ids
                0x000000004a062258        0x8 arch/arm/cpu/armv7/start.o
 .rel.rodata.uimage_comp
                0x000000004a062260       0x70 arch/arm/cpu/armv7/start.o
 .rel.rodata.uimage_os
                0x000000004a0622d0       0xa0 arch/arm/cpu/armv7/start.o
 .rel.rodata.table_info
                0x000000004a062370        0x0 arch/arm/cpu/armv7/start.o
 .rel.rodata.uimage_type
                0x000000004a062370      0x200 arch/arm/cpu/armv7/start.o
 .rel.rodata.uimage_arch
                0x000000004a062570      0x1a0 arch/arm/cpu/armv7/start.o
 .rel.rodata.CSWTCH.28
                0x000000004a062710       0x40 arch/arm/cpu/armv7/start.o
 .rel.data.hash_algo
                0x000000004a062750        0x0 arch/arm/cpu/armv7/start.o
 .rel.data.reserved_list
                0x000000004a062750       0x58 arch/arm/cpu/armv7/start.o
 .rel.u_boot_list_2_cmd_2_showvar
                0x000000004a0627a8       0x20 arch/arm/cpu/armv7/start.o
 .rel.data.init_sequence_r
                0x000000004a0627c8       0xe8 arch/arm/cpu/armv7/start.o
 .rel.u_boot_list_2_env_clbk_2_callbacks
                0x000000004a0628b0       0x10 arch/arm/cpu/armv7/start.o
 .rel.u_boot_list_2_env_clbk_2_flags
                0x000000004a0628c0       0x10 arch/arm/cpu/armv7/start.o
 .rel.data.env_name_spec
                0x000000004a0628d0        0x8 arch/arm/cpu/armv7/start.o
 .rel.data.of_busses
                0x000000004a0628d8       0x28 arch/arm/cpu/armv7/start.o
 .rel.u_boot_list_2_usb_driver_entry_2_usb_generic_hub
                0x000000004a062900       0x10 arch/arm/cpu/armv7/start.o
 .rel.u_boot_list_2_driver_2_usb_generic_hub
                0x000000004a062910       0x10 arch/arm/cpu/armv7/start.o
 .rel.u_boot_list_2_uclass_2_usb_hub
                0x000000004a062920       0x20 arch/arm/cpu/armv7/start.o
 .rel.data.usb_scan_list
                0x000000004a062940       0x10 arch/arm/cpu/armv7/start.o
 .rel.u_boot_list_2_driver_2_usb_mass_storage
                0x000000004a062950       0x18 arch/arm/cpu/armv7/start.o
 .rel.u_boot_list_2_blk_driver_2_usb
                0x000000004a062968       0x10 arch/arm/cpu/armv7/start.o
 .rel.u_boot_list_2_usb_driver_entry_2_usb_mass_storage
                0x000000004a062978       0x10 arch/arm/cpu/armv7/start.o
 .rel.u_boot_list_2_uclass_2_usb_mass_storage
                0x000000004a062988        0x8 arch/arm/cpu/armv7/start.o
 .rel.u_boot_list_2_blk_driver_2_scsi
                0x000000004a062990       0x10 arch/arm/cpu/armv7/start.o
 .rel.u_boot_list_2_usb_driver_entry_2_usb_kbd
                0x000000004a0629a0       0x10 arch/arm/cpu/armv7/start.o
 .rel.u_boot_list_2_driver_2_usb_kbd
                0x000000004a0629b0       0x20 arch/arm/cpu/armv7/start.o
 .rel.data.env_htab
                0x000000004a0629d0        0x8 arch/arm/cpu/armv7/start.o
 .rel.u_boot_list_2_env_clbk_2_console
                0x000000004a0629d8       0x10 arch/arm/cpu/armv7/start.o
 .rel.data.av_  0x000000004a0629e8      0x800 arch/arm/cpu/armv7/start.o
 .rel.u_boot_list_2_env_clbk_2_loadaddr
                0x000000004a0631e8       0x10 arch/arm/cpu/armv7/start.o
 .rel.data.stdio_names
                0x000000004a0631f8       0x18 arch/arm/cpu/armv7/start.o
 .rel.text.dev_print
                0x000000004a063210      0x110 arch/arm/cpu/armv7/start.o
 .rel.text.part_init
                0x000000004a063320       0x10 arch/arm/cpu/armv7/start.o
 .rel.text.part_print
                0x000000004a063330       0xb8 arch/arm/cpu/armv7/start.o
 .rel.text.part_get_info
                0x000000004a0633e8       0x10 arch/arm/cpu/armv7/start.o
 .rel.text.blk_get_device_by_str
                0x000000004a0633f8       0x18 arch/arm/cpu/armv7/start.o
 .rel.text.blk_get_device_part_str
                0x000000004a063410       0x60 arch/arm/cpu/armv7/start.o
 .rel.text.part_get_info_by_name
                0x000000004a063470        0x0 arch/arm/cpu/armv7/start.o
 .rel.text.part_set_generic_name
                0x000000004a063470       0x18 arch/arm/cpu/armv7/start.o
 .rel.text.test_block_type
                0x000000004a063488       0x10 arch/arm/cpu/armv7/start.o
 .rel.text.print_partition_extended
                0x000000004a063498       0x30 arch/arm/cpu/armv7/start.o
 .rel.text.part_print_dos
                0x000000004a0634c8        0x8 arch/arm/cpu/armv7/start.o
 .rel.text.part_get_info_extended
                0x000000004a0634d0       0x20 arch/arm/cpu/armv7/start.o
 .rel.text.write_mbr_partition
                0x000000004a0634f0        0x0 arch/arm/cpu/armv7/start.o
 .rel.text.part_get_info_iso_verb
                0x000000004a0634f0       0x90 arch/arm/cpu/armv7/start.o
 .rel.text.part_print_iso
                0x000000004a063580       0x18 arch/arm/cpu/armv7/start.o
 .rel.text.print_efiname
                0x000000004a063598       0x10 arch/arm/cpu/armv7/start.o
 .rel.text.set_protective_mbr
                0x000000004a0635a8        0x0 arch/arm/cpu/armv7/start.o
 .rel.text.validate_gpt_entries
                0x000000004a0635a8       0x10 arch/arm/cpu/armv7/start.o
 .rel.text.validate_gpt_header
                0x000000004a0635b8       0x30 arch/arm/cpu/armv7/start.o
 .rel.text.is_gpt_valid
                0x000000004a0635e8       0x38 arch/arm/cpu/armv7/start.o
 .rel.text.is_pte_valid
                0x000000004a063620       0x10 arch/arm/cpu/armv7/start.o
 .rel.text.part_print_efi
                0x000000004a063630       0x60 arch/arm/cpu/armv7/start.o
 .rel.text.part_get_info_efi
                0x000000004a063690       0x40 arch/arm/cpu/armv7/start.o
 .rel.text.write_gpt_table
                0x000000004a0636d0        0x0 arch/arm/cpu/armv7/start.o
 .rel.text.gpt_fill_pte
                0x000000004a0636d0        0x0 arch/arm/cpu/armv7/start.o
 .rel.text.gpt_fill_header
                0x000000004a0636d0        0x0 arch/arm/cpu/armv7/start.o
 .rel.text.gpt_restore
                0x000000004a0636d0        0x0 arch/arm/cpu/armv7/start.o
 .rel.text.gpt_verify_headers
                0x000000004a0636d0        0x0 arch/arm/cpu/armv7/start.o
 .rel.text.gpt_verify_partitions
                0x000000004a0636d0        0x0 arch/arm/cpu/armv7/start.o
 .rel.text.write_mbr_and_gpt_partitions
                0x000000004a0636d0        0x0 arch/arm/cpu/armv7/start.o
 .rel.rodata.CSWTCH.46
                0x000000004a0636d0       0x40 arch/arm/cpu/armv7/start.o
 .rel.u_boot_list_2_part_driver_2_dos
                0x000000004a063710       0x20 arch/arm/cpu/armv7/start.o
 .rel.u_boot_list_2_part_driver_2_iso
                0x000000004a063730       0x20 arch/arm/cpu/armv7/start.o
 .rel.u_boot_list_2_part_driver_2_a_efi
                0x000000004a063750       0x20 arch/arm/cpu/armv7/start.o
 .rel.text.device_bind_common.isra.0
                0x000000004a063770       0x10 arch/arm/cpu/armv7/start.o
 .rel.text.device_probe
                0x000000004a063780       0x10 arch/arm/cpu/armv7/start.o
 .rel.text.dev_get_platdata
                0x000000004a063790       0x10 arch/arm/cpu/armv7/start.o
 .rel.text.dev_get_parent_platdata
                0x000000004a0637a0       0x10 arch/arm/cpu/armv7/start.o
 .rel.text.dev_get_uclass_platdata
                0x000000004a0637b0       0x10 arch/arm/cpu/armv7/start.o
 .rel.text.dev_get_priv
                0x000000004a0637c0       0x10 arch/arm/cpu/armv7/start.o
 .rel.text.dev_get_uclass_priv
                0x000000004a0637d0       0x10 arch/arm/cpu/armv7/start.o
 .rel.text.dev_get_parent_priv
                0x000000004a0637e0       0x10 arch/arm/cpu/armv7/start.o
 .rel.text.dev_get_addr_index
                0x000000004a0637f0        0x8 arch/arm/cpu/armv7/start.o
 .rel.text.dev_get_addr_size_index
                0x000000004a0637f8        0x0 arch/arm/cpu/armv7/start.o
 .rel.text.dev_get_addr_name
                0x000000004a0637f8        0x0 arch/arm/cpu/armv7/start.o
 .rel.text.lists_driver_lookup_name
                0x000000004a0637f8       0x10 arch/arm/cpu/armv7/start.o
 .rel.text.lists_uclass_lookup
                0x000000004a063808       0x10 arch/arm/cpu/armv7/start.o
 .rel.text.lists_bind_drivers
                0x000000004a063818       0x18 arch/arm/cpu/armv7/start.o
 .rel.text.lists_bind_fdt
                0x000000004a063830       0x28 arch/arm/cpu/armv7/start.o
 .rel.text.dm_root
                0x000000004a063858        0x8 arch/arm/cpu/armv7/start.o
 .rel.text.dm_init
                0x000000004a063860       0x10 arch/arm/cpu/armv7/start.o
 .rel.text.dm_scan_platdata
                0x000000004a063870        0x8 arch/arm/cpu/armv7/start.o
 .rel.text.dm_scan_fdt_node
                0x000000004a063878        0x8 arch/arm/cpu/armv7/start.o
 .rel.text.uclass_resolve_seq
                0x000000004a063880        0x8 arch/arm/cpu/armv7/start.o
 .rel.text.dm_fdt_pre_reloc
                0x000000004a063888       0x18 arch/arm/cpu/armv7/start.o
 .rel.text.device_remove
                0x000000004a0638a0       0x20 arch/arm/cpu/armv7/start.o
 .rel.text.simple_bus_post_bind
                0x000000004a0638c0        0x8 arch/arm/cpu/armv7/start.o
 .rel.text.show_devices
                0x000000004a0638c8       0x30 arch/arm/cpu/armv7/start.o
 .rel.text.dm_dump_all
                0x000000004a0638f8       0x10 arch/arm/cpu/armv7/start.o
 .rel.text.dm_dump_uclass
                0x000000004a063908       0x20 arch/arm/cpu/armv7/start.o
 .rel.text.blk_driver_lookup_type
                0x000000004a063928       0x10 arch/arm/cpu/armv7/start.o
 .rel.text.blk_list_devices
                0x000000004a063938        0x8 arch/arm/cpu/armv7/start.o
 .rel.text.blk_print_device_num
                0x000000004a063940        0x8 arch/arm/cpu/armv7/start.o
 .rel.text.blk_show_device
                0x000000004a063948       0x10 arch/arm/cpu/armv7/start.o
 .rel.text.blk_get_devnum_by_typename
                0x000000004a063958       0x10 arch/arm/cpu/armv7/start.o
 .rel.text.ahci_device_data_io.constprop.3
                0x000000004a063968       0x20 arch/arm/cpu/armv7/start.o
 .rel.text.ata_scsiop_inquiry
                0x000000004a063988       0x28 arch/arm/cpu/armv7/start.o
 .rel.text.ahci_port_start
                0x000000004a0639b0       0x20 arch/arm/cpu/armv7/start.o
 .rel.text.ata_scsiop_read_write
                0x000000004a0639d0       0x10 arch/arm/cpu/armv7/start.o
 .rel.text.ahci_reset
                0x000000004a0639e0        0x8 arch/arm/cpu/armv7/start.o
 .rel.text.scsi_exec
                0x000000004a0639e8       0x20 arch/arm/cpu/armv7/start.o
 .rel.text.scsi_low_level_init
                0x000000004a063a08        0x0 arch/arm/cpu/armv7/start.o
 .rel.text.ahci_init
                0x000000004a063a08      0x110 arch/arm/cpu/armv7/start.o
 .rel.text.ata_dump_id
                0x000000004a063b18        0x0 arch/arm/cpu/armv7/start.o
 .rel.text.video_drawchars
                0x000000004a063b18       0x80 arch/arm/cpu/armv7/start.o
 .rel.text.video_invertchar
                0x000000004a063b98       0x10 arch/arm/cpu/armv7/start.o
 .rel.text.cfb_video_putc.part.1
                0x000000004a063ba8        0x8 arch/arm/cpu/armv7/start.o
 .rel.text.console_newline.constprop.3
                0x000000004a063bb0       0x28 arch/arm/cpu/armv7/start.o
 .rel.text.console_cursor
                0x000000004a063bd8       0x30 arch/arm/cpu/armv7/start.o
 .rel.text.cfb_video_putc
                0x000000004a063c08       0x68 arch/arm/cpu/armv7/start.o
 .rel.text.cfb_video_puts
                0x000000004a063c70       0x10 arch/arm/cpu/armv7/start.o
 .rel.text.plot_logo_or_black
                0x000000004a063c80       0x58 arch/arm/cpu/armv7/start.o
 .rel.text.do_clrlogo
                0x000000004a063cd8        0x8 arch/arm/cpu/armv7/start.o
 .rel.text.video_clear
                0x000000004a063ce0       0x18 arch/arm/cpu/armv7/start.o
 .rel.text.drv_video_init
                0x000000004a063cf8       0xa0 arch/arm/cpu/armv7/start.o
 .rel.text.video_position_cursor
                0x000000004a063d98        0x0 arch/arm/cpu/armv7/start.o
 .rel.text.video_get_pixel_width
                0x000000004a063d98        0x0 arch/arm/cpu/armv7/start.o
 .rel.text.video_get_pixel_height
                0x000000004a063d98        0x0 arch/arm/cpu/armv7/start.o
 .rel.text.video_get_screen_rows
                0x000000004a063d98        0x0 arch/arm/cpu/armv7/start.o
 .rel.text.video_get_screen_columns
                0x000000004a063d98        0x0 arch/arm/cpu/armv7/start.o
 .rel.text.sunxi_is_composite
                0x000000004a063d98        0x8 arch/arm/cpu/armv7/start.o
 .rel.text.sunxi_composer_mode_set
                0x000000004a063da0        0x8 arch/arm/cpu/armv7/start.o
 .rel.text.await_completion.constprop.5
                0x000000004a063da8        0x8 arch/arm/cpu/armv7/start.o
 .rel.text.sunxi_hdmi_edid_get_block
                0x000000004a063db0       0x18 arch/arm/cpu/armv7/start.o
 .rel.text.video_hw_init
                0x000000004a063dc8      0x120 arch/arm/cpu/armv7/start.o
 .rel.text.sunxi_simplefb_setup
                0x000000004a063ee8       0x98 arch/arm/cpu/armv7/start.o
 .rel.text.video_get_params
                0x000000004a063f80        0x0 arch/arm/cpu/armv7/start.o
 .rel.text.video_get_video_mode
                0x000000004a063f80       0x10 arch/arm/cpu/armv7/start.o
 .rel.text.video_get_ctfb_res_modes
                0x000000004a063f90       0x10 arch/arm/cpu/armv7/start.o
 .rel.text.keyboard_pre_probe
                0x000000004a063fa0       0x20 arch/arm/cpu/armv7/start.o
 .rel.text._input_send_keycodes
                0x000000004a063fc0        0x0 arch/arm/cpu/armv7/start.o
 .rel.text.input_add_tables
                0x000000004a063fc0        0x0 arch/arm/cpu/armv7/start.o
 .rel.text.input_stdio_register
                0x000000004a063fc0        0x0 arch/arm/cpu/armv7/start.o
 .rel.text.key_matrix_decode_fdt
                0x000000004a063fc0        0x0 arch/arm/cpu/armv7/start.o
 .rel.rodata.root_info
                0x000000004a063fc0        0x8 arch/arm/cpu/armv7/start.o
 .rel.rodata.generic_simple_bus_ids
                0x000000004a063fc8       0x10 arch/arm/cpu/armv7/start.o
 .rel.rodata.CSWTCH.47
                0x000000004a063fd8       0x48 arch/arm/cpu/armv7/start.o
 .rel.rodata.kbd_to_ansi364
                0x000000004a064020        0x0 arch/arm/cpu/armv7/start.o
 .rel.u_boot_list_2_driver_2_root_driver
                0x000000004a064020        0x8 arch/arm/cpu/armv7/start.o
 .rel.u_boot_list_2_uclass_2_root
                0x000000004a064028        0x8 arch/arm/cpu/armv7/start.o
 .rel.u_boot_list_2_uclass_2_simple_bus
                0x000000004a064030       0x10 arch/arm/cpu/armv7/start.o
 .rel.u_boot_list_2_driver_2_simple_bus_drv
                0x000000004a064040       0x10 arch/arm/cpu/armv7/start.o
 .rel.u_boot_list_2_uclass_2_ahci
                0x000000004a064050        0x8 arch/arm/cpu/armv7/start.o
 .rel.u_boot_list_2_cmd_2_clrlogo
                0x000000004a064058       0x20 arch/arm/cpu/armv7/start.o
 .rel.u_boot_list_2_uclass_2_keyboard
                0x000000004a064078       0x10 arch/arm/cpu/armv7/start.o
 .rel.data.kbd_entry
                0x000000004a064088        0x0 arch/arm/cpu/armv7/start.o
 .rel.text.check_reserved
                0x000000004a064088       0x10 arch/arm/cpu/armv7/start.o
 .rel.text.dm_gpio_lookup_name
                0x000000004a064098        0x8 arch/arm/cpu/armv7/start.o
 .rel.text.gpio_direction_input
                0x000000004a0640a0        0x8 arch/arm/cpu/armv7/start.o
 .rel.text.gpio_direction_output
                0x000000004a0640a8        0x8 arch/arm/cpu/armv7/start.o
 .rel.text.dm_gpio_get_value
                0x000000004a0640b0        0x8 arch/arm/cpu/armv7/start.o
 .rel.text.dm_gpio_set_value
                0x000000004a0640b8        0x8 arch/arm/cpu/armv7/start.o
 .rel.text.dm_gpio_get_open_drain
                0x000000004a0640c0        0x0 arch/arm/cpu/armv7/start.o
 .rel.text.dm_gpio_set_open_drain
                0x000000004a0640c0        0x0 arch/arm/cpu/armv7/start.o
 .rel.text.dm_gpio_set_dir_flags
                0x000000004a0640c0        0x8 arch/arm/cpu/armv7/start.o
 .rel.text._gpio_request_by_name_nodev
                0x000000004a0640c8       0x18 arch/arm/cpu/armv7/start.o
 .rel.text.gpio_get_status
                0x000000004a0640e0       0x28 arch/arm/cpu/armv7/start.o
 .rel.text.gpio_get_list_count
                0x000000004a064108        0x0 arch/arm/cpu/armv7/start.o
 .rel.rodata.gpio_function
                0x000000004a064108       0x28 arch/arm/cpu/armv7/start.o
 .rel.rodata.sunxi_gpio_ids
                0x000000004a064130      0x100 arch/arm/cpu/armv7/start.o
 .rel.rodata.gpio_sunxi_ops
                0x000000004a064230       0x30 arch/arm/cpu/armv7/start.o
 .rel.u_boot_list_2_uclass_2_gpio
                0x000000004a064260       0x18 arch/arm/cpu/armv7/start.o
 .rel.u_boot_list_2_driver_2_gpio_sunxi
                0x000000004a064278       0x28 arch/arm/cpu/armv7/start.o
 .rel.text.i2c_get_adapter
                0x000000004a0642a0       0x18 arch/arm/cpu/armv7/start.o
 .rel.text.i2c_init_bus
                0x000000004a0642b8       0x10 arch/arm/cpu/armv7/start.o
 .rel.text.i2c_set_bus_num
                0x000000004a0642c8       0x18 arch/arm/cpu/armv7/start.o
 .rel.text.twsi_get_base.isra.0
                0x000000004a0642e0        0x8 arch/arm/cpu/armv7/start.o
 .rel.u_boot_list_2_i2c_2_twsi0
                0x000000004a0642e8       0x30 arch/arm/cpu/armv7/start.o
 .rel.text.find_mmc_device
                0x000000004a064318       0x10 arch/arm/cpu/armv7/start.o
 .rel.text.mmc_get_next_devnum
                0x000000004a064328        0x8 arch/arm/cpu/armv7/start.o
 .rel.text.get_mmc_num
                0x000000004a064330        0x8 arch/arm/cpu/armv7/start.o
 .rel.text.mmc_do_preinit
                0x000000004a064338        0x8 arch/arm/cpu/armv7/start.o
 .rel.text.mmc_list_init
                0x000000004a064340       0x10 arch/arm/cpu/armv7/start.o
 .rel.text.mmc_list_add
                0x000000004a064350        0x8 arch/arm/cpu/armv7/start.o
 .rel.text.print_mmc_devices
                0x000000004a064358       0x40 arch/arm/cpu/armv7/start.o
 .rel.text.mmc_create
                0x000000004a064398       0x18 arch/arm/cpu/armv7/start.o
 .rel.text.mmc_set_capacity
                0x000000004a0643b0       0x40 arch/arm/cpu/armv7/start.o
 .rel.text.mmc_send_status
                0x000000004a0643f0       0x10 arch/arm/cpu/armv7/start.o
 .rel.text.mmc_bread
                0x000000004a064400       0x10 arch/arm/cpu/armv7/start.o
 .rel.text.mmc_hwpart_config
                0x000000004a064410       0x48 arch/arm/cpu/armv7/start.o
 .rel.text.mmc_startup
                0x000000004a064458       0xb8 arch/arm/cpu/armv7/start.o
 .rel.text.mmc_start_init
                0x000000004a064510       0x10 arch/arm/cpu/armv7/start.o
 .rel.text.mmc_init
                0x000000004a064520       0x10 arch/arm/cpu/armv7/start.o
 .rel.text.mmc_initialize
                0x000000004a064530        0x8 arch/arm/cpu/armv7/start.o
 .rel.text.mmc_berase
                0x000000004a064538       0x10 arch/arm/cpu/armv7/start.o
 .rel.text.mmc_bwrite
                0x000000004a064548       0x18 arch/arm/cpu/armv7/start.o
 .rel.text.sunxi_mmc_getcd_gpio
                0x000000004a064560       0x30 arch/arm/cpu/armv7/start.o
 .rel.text.mmc_set_mod_clk
                0x000000004a064590        0x8 arch/arm/cpu/armv7/start.o
 .rel.text.sunxi_mmc_init
                0x000000004a064598       0x48 arch/arm/cpu/armv7/start.o
 .rel.rodata.sunxi_mmc_ops
                0x000000004a0645e0       0x20 arch/arm/cpu/armv7/start.o
 .rel.u_boot_list_2_blk_driver_2_mmc
                0x000000004a064600       0x18 arch/arm/cpu/armv7/start.o
 .rel.text.designware_eth_send
                0x000000004a064618        0x8 arch/arm/cpu/armv7/start.o
 .rel.text.designware_eth_probe
                0x000000004a064620       0x28 arch/arm/cpu/armv7/start.o
 .rel.text.designware_eth_ofdata_to_platdata
                0x000000004a064648       0x28 arch/arm/cpu/armv7/start.o
 .rel.text.designware_eth_init
                0x000000004a064670       0x40 arch/arm/cpu/armv7/start.o
 .rel.rodata.designware_eth_ids
                0x000000004a0646b0       0x28 arch/arm/cpu/armv7/start.o
 .rel.rodata.designware_eth_ops
                0x000000004a0646d8       0x30 arch/arm/cpu/armv7/start.o
 .rel.u_boot_list_2_driver_2_eth_designware
                0x000000004a064708       0x38 arch/arm/cpu/armv7/start.o
 .rel.u_boot_list_2_pci_driver_entry_2_eth_designware
                0x000000004a064740       0x10 arch/arm/cpu/armv7/start.o
 .rel.text.genphy_update_link
                0x000000004a064750       0x28 arch/arm/cpu/armv7/start.o
 .rel.text.phy_register
                0x000000004a064778        0x8 arch/arm/cpu/armv7/start.o
 .rel.text.get_phy_device_by_mask
                0x000000004a064780       0x18 arch/arm/cpu/armv7/start.o
 .rel.text.phy_reset
                0x000000004a064798        0x8 arch/arm/cpu/armv7/start.o
 .rel.text.phy_connect_dev
                0x000000004a0647a0        0x8 arch/arm/cpu/armv7/start.o
 .rel.text.phy_connect
                0x000000004a0647a8        0x0 arch/arm/cpu/armv7/start.o
 .rel.text.phy_get_interface_by_name
                0x000000004a0647a8        0x8 arch/arm/cpu/armv7/start.o
 .rel.text.rtl8211x_startup
                0x000000004a0647b0       0x18 arch/arm/cpu/armv7/start.o
 .rel.text.rtl8211f_startup
                0x000000004a0647c8        0x8 arch/arm/cpu/armv7/start.o
 .rel.text.phy_realtek_init
                0x000000004a0647d0       0x20 arch/arm/cpu/armv7/start.o
 .rel.rodata.phy_interface_strings
                0x000000004a0647f0       0x88 arch/arm/cpu/armv7/start.o
 .rel.data.genphy_driver
                0x000000004a064878       0x20 arch/arm/cpu/armv7/start.o
 .rel.data.phy_drivers
                0x000000004a064898       0x10 arch/arm/cpu/armv7/start.o
 .rel.data.RTL8211F_driver
                0x000000004a0648a8       0x20 arch/arm/cpu/armv7/start.o
 .rel.data.RTL8211E_driver
                0x000000004a0648c8       0x20 arch/arm/cpu/armv7/start.o
 .rel.data.RTL8211DN_driver
                0x000000004a0648e8       0x20 arch/arm/cpu/armv7/start.o
 .rel.data.RTL8211B_driver
                0x000000004a064908       0x28 arch/arm/cpu/armv7/start.o
 .rel.text.axp_set_aldo4
                0x000000004a064930        0x0 arch/arm/cpu/armv7/start.o
 .rel.text.serial_post_probe
                0x000000004a064930       0x20 arch/arm/cpu/armv7/start.o
 .rel.text.serial_init
                0x000000004a064950       0x18 arch/arm/cpu/armv7/start.o
 .rel.text.on_baudrate
                0x000000004a064968       0x18 arch/arm/cpu/armv7/start.o
 .rel.text.ns16550_serial_ofdata_to_platdata
                0x000000004a064980       0x18 arch/arm/cpu/armv7/start.o
 .rel.rodata.ns16550_serial_ops
                0x000000004a064998       0x20 arch/arm/cpu/armv7/start.o
 .rel.rodata.ns16550_serial_ids
                0x000000004a0649b8       0x58 arch/arm/cpu/armv7/start.o
 .rel.u_boot_list_2_env_clbk_2_baudrate
                0x000000004a064a10       0x10 arch/arm/cpu/armv7/start.o
 .rel.u_boot_list_2_uclass_2_serial
                0x000000004a064a20       0x18 arch/arm/cpu/armv7/start.o
 .rel.u_boot_list_2_driver_2_ns16550_serial
                0x000000004a064a38       0x28 arch/arm/cpu/armv7/start.o
 .rel.text.spi_set_wordlen
                0x000000004a064a60        0x0 arch/arm/cpu/armv7/start.o
 .rel.text.usb_get_dr_mode
                0x000000004a064a60        0x0 arch/arm/cpu/armv7/start.o
 .rel.rodata.usb_dr_modes
                0x000000004a064a60        0x0 arch/arm/cpu/armv7/start.o
 .rel.text.usb_child_post_bind
                0x000000004a064a60       0x10 arch/arm/cpu/armv7/start.o
 .rel.text.usb_disable_asynch
                0x000000004a064a70        0x8 arch/arm/cpu/armv7/start.o
 .rel.text.usb_stop
                0x000000004a064a78        0x8 arch/arm/cpu/armv7/start.o
 .rel.text.usb_scan_device
                0x000000004a064a80       0x20 arch/arm/cpu/armv7/start.o
 .rel.text.usb_scan_bus.isra.1
                0x000000004a064aa0       0x20 arch/arm/cpu/armv7/start.o
 .rel.text.usb_init
                0x000000004a064ac0       0x38 arch/arm/cpu/armv7/start.o
 .rel.text.ohci_get_ohci_dev
                0x000000004a064af8        0x8 arch/arm/cpu/armv7/start.o
 .rel.text.td_fill.isra.2
                0x000000004a064b00        0x8 arch/arm/cpu/armv7/start.o
 .rel.text.hc_reset
                0x000000004a064b08       0x10 arch/arm/cpu/armv7/start.o
 .rel.text.hc_interrupt
                0x000000004a064b18       0x30 arch/arm/cpu/armv7/start.o
 .rel.text.sohci_submit_job
                0x000000004a064b48       0x28 arch/arm/cpu/armv7/start.o
 .rel.text.ohci_create_int_queue
                0x000000004a064b70       0x18 arch/arm/cpu/armv7/start.o
 .rel.text.submit_common_msg
                0x000000004a064b88       0x20 arch/arm/cpu/armv7/start.o
 .rel.text.ohci_submit_control_msg
                0x000000004a064ba8      0x108 arch/arm/cpu/armv7/start.o
 .rel.text.ohci_register
                0x000000004a064cb0        0x8 arch/arm/cpu/armv7/start.o
 .rel.text.ehci_td_buffer
                0x000000004a064cb8        0x8 arch/arm/cpu/armv7/start.o
 .rel.text.ehci_shutdown
                0x000000004a064cc0        0x8 arch/arm/cpu/armv7/start.o
 .rel.text.disable_periodic.isra.1
                0x000000004a064cc8        0x8 arch/arm/cpu/armv7/start.o
 .rel.text.enable_periodic.isra.2
                0x000000004a064cd0        0x8 arch/arm/cpu/armv7/start.o
 .rel.text._ehci_destroy_int_queue
                0x000000004a064cd8        0x8 arch/arm/cpu/armv7/start.o
 .rel.text.ehci_submit_async
                0x000000004a064ce0       0x30 arch/arm/cpu/armv7/start.o
 .rel.text._ehci_create_int_queue.isra.5
                0x000000004a064d10       0x10 arch/arm/cpu/armv7/start.o
 .rel.text.ehci_submit_int_msg
                0x000000004a064d20        0x8 arch/arm/cpu/armv7/start.o
 .rel.text.ehci_submit_control_msg
                0x000000004a064d28       0x28 arch/arm/cpu/armv7/start.o
 .rel.text.ehci_register
                0x000000004a064d50       0x38 arch/arm/cpu/armv7/start.o
 .rel.rodata.cc_to_string
                0x000000004a064d88       0x80 arch/arm/cpu/armv7/start.o
 .rel.rodata.ohci_usb_ids
                0x000000004a064e08       0x48 arch/arm/cpu/armv7/start.o
 .rel.rodata.default_ehci_ops
                0x000000004a064e50        0x0 arch/arm/cpu/armv7/start.o
 .rel.rodata.ehci_usb_ids
                0x000000004a064e50       0x48 arch/arm/cpu/armv7/start.o
 .rel.u_boot_list_2_uclass_2_usb_dev_generic
                0x000000004a064e98        0x8 arch/arm/cpu/armv7/start.o
 .rel.u_boot_list_2_driver_2_usb_dev_generic_drv
                0x000000004a064ea0        0x8 arch/arm/cpu/armv7/start.o
 .rel.u_boot_list_2_uclass_2_usb
                0x000000004a064ea8       0x20 arch/arm/cpu/armv7/start.o
 .rel.data.ohci_usb_ops
                0x000000004a064ec8       0x30 arch/arm/cpu/armv7/start.o
 .rel.u_boot_list_2_driver_2_usb_ohci
                0x000000004a064ef8       0x28 arch/arm/cpu/armv7/start.o
 .rel.data.ehci_usb_ops
                0x000000004a064f20       0x30 arch/arm/cpu/armv7/start.o
 .rel.u_boot_list_2_driver_2_ehci_sunxi
                0x000000004a064f50       0x28 arch/arm/cpu/armv7/start.o
 .rel.text.fs_probe_unsupported
                0x000000004a064f78        0x8 arch/arm/cpu/armv7/start.o
 .rel.text.fs_get_info
                0x000000004a064f80        0x8 arch/arm/cpu/armv7/start.o
 .rel.text.fs_close
                0x000000004a064f88        0x8 arch/arm/cpu/armv7/start.o
 .rel.text.fs_set_blk_dev
                0x000000004a064f90       0x28 arch/arm/cpu/armv7/start.o
 .rel.text.fs_uuid
                0x000000004a064fb8        0x0 arch/arm/cpu/armv7/start.o
 .rel.text.fs_ls
                0x000000004a064fb8        0x8 arch/arm/cpu/armv7/start.o
 .rel.text.fs_exists
                0x000000004a064fc0        0x8 arch/arm/cpu/armv7/start.o
 .rel.text.fs_size
                0x000000004a064fc8        0x8 arch/arm/cpu/armv7/start.o
 .rel.text.fs_read
                0x000000004a064fd0       0x10 arch/arm/cpu/armv7/start.o
 .rel.text.fs_write
                0x000000004a064fe0       0x10 arch/arm/cpu/armv7/start.o
 .rel.text.do_size
                0x000000004a064ff0        0x8 arch/arm/cpu/armv7/start.o
 .rel.text.do_load
                0x000000004a064ff8       0x50 arch/arm/cpu/armv7/start.o
 .rel.text.do_ls
                0x000000004a065048        0x8 arch/arm/cpu/armv7/start.o
 .rel.text.do_save
                0x000000004a065050       0x28 arch/arm/cpu/armv7/start.o
 .rel.text.do_fs_uuid
                0x000000004a065078        0x0 arch/arm/cpu/armv7/start.o
 .rel.text.do_fs_type
                0x000000004a065078       0x10 arch/arm/cpu/armv7/start.o
 .rel.text.get_fs
                0x000000004a065088        0x8 arch/arm/cpu/armv7/start.o
 .rel.text.ext4fs_free_node
                0x000000004a065090        0x8 arch/arm/cpu/armv7/start.o
 .rel.text.ext4fs_read_file
                0x000000004a065098        0x8 arch/arm/cpu/armv7/start.o
 .rel.text.ext4fs_ls
                0x000000004a0650a0       0x10 arch/arm/cpu/armv7/start.o
 .rel.text.ext4fs_read
                0x000000004a0650b0       0x10 arch/arm/cpu/armv7/start.o
 .rel.text.ext4_read_file
                0x000000004a0650c0        0x8 arch/arm/cpu/armv7/start.o
 .rel.text.ext4fs_uuid
                0x000000004a0650c8        0x8 arch/arm/cpu/armv7/start.o
 .rel.text.read_allocated_block
                0x000000004a0650d0       0xb0 arch/arm/cpu/armv7/start.o
 .rel.text.ext4fs_reinit_global
                0x000000004a065180       0x48 arch/arm/cpu/armv7/start.o
 .rel.text.ext4fs_close
                0x000000004a0651c8       0x10 arch/arm/cpu/armv7/start.o
 .rel.text.ext4fs_iterate_dir
                0x000000004a0651d8       0x30 arch/arm/cpu/armv7/start.o
 .rel.text.ext4fs_find_file1
                0x000000004a065208       0x10 arch/arm/cpu/armv7/start.o
 .rel.text.ext4fs_find_file
                0x000000004a065218        0x8 arch/arm/cpu/armv7/start.o
 .rel.text.ext4fs_open
                0x000000004a065220       0x10 arch/arm/cpu/armv7/start.o
 .rel.text.ext4fs_mount
                0x000000004a065230       0x10 arch/arm/cpu/armv7/start.o
 .rel.text.ext4fs_set_blk_dev
                0x000000004a065240       0x18 arch/arm/cpu/armv7/start.o
 .rel.text.ext4fs_devread
                0x000000004a065258       0x40 arch/arm/cpu/armv7/start.o
 .rel.text.downcase
                0x000000004a065298        0x8 arch/arm/cpu/armv7/start.o
 .rel.text.disk_read
                0x000000004a0652a0       0x10 arch/arm/cpu/armv7/start.o
 .rel.text.disk_write
                0x000000004a0652b0       0x20 arch/arm/cpu/armv7/start.o
 .rel.text.flush_dirty_fat_buffer
                0x000000004a0652d0        0x8 arch/arm/cpu/armv7/start.o
 .rel.text.get_fatent
                0x000000004a0652d8        0x8 arch/arm/cpu/armv7/start.o
 .rel.text.get_cluster
                0x000000004a0652e0        0x8 arch/arm/cpu/armv7/start.o
 .rel.text.set_cluster
                0x000000004a0652e8        0x8 arch/arm/cpu/armv7/start.o
 .rel.text.read_bootsectandvi
                0x000000004a0652f0       0x20 arch/arm/cpu/armv7/start.o
 .rel.text.set_name
                0x000000004a065310        0x8 arch/arm/cpu/armv7/start.o
 .rel.text.check_overflow
                0x000000004a065318       0x10 arch/arm/cpu/armv7/start.o
 .rel.text.get_vfatname
                0x000000004a065328       0x10 arch/arm/cpu/armv7/start.o
 .rel.text.flush_dir_table.constprop.8
                0x000000004a065338       0x20 arch/arm/cpu/armv7/start.o
 .rel.text.do_fat_write
                0x000000004a065358       0x80 arch/arm/cpu/armv7/start.o
 .rel.text.fat_set_blk_dev
                0x000000004a0653d8       0x28 arch/arm/cpu/armv7/start.o
 .rel.text.fat_register_device
                0x000000004a065400        0x0 arch/arm/cpu/armv7/start.o
 .rel.text.do_fat_read_at
                0x000000004a065400       0x60 arch/arm/cpu/armv7/start.o
 .rel.text.file_fat_detectfs
                0x000000004a065460       0xb0 arch/arm/cpu/armv7/start.o
 .rel.text.file_fat_read_at
                0x000000004a065510        0x8 arch/arm/cpu/armv7/start.o
 .rel.text.fat_read_file
                0x000000004a065518        0x8 arch/arm/cpu/armv7/start.o
 .rel.text.file_fat_write
                0x000000004a065520       0x10 arch/arm/cpu/armv7/start.o
 .rel.text.file_getfsname
                0x000000004a065530        0x0 arch/arm/cpu/armv7/start.o
 .rel.text.file_cd
                0x000000004a065530        0x0 arch/arm/cpu/armv7/start.o
 .rel.text.file_detectfs
                0x000000004a065530        0x0 arch/arm/cpu/armv7/start.o
 .rel.text.file_ls
                0x000000004a065530        0x0 arch/arm/cpu/armv7/start.o
 .rel.text.file_read
                0x000000004a065530        0x0 arch/arm/cpu/armv7/start.o
 .rel.rodata.filesystems
                0x000000004a065530        0x0 arch/arm/cpu/armv7/start.o
 .rel.data.fstypes
                0x000000004a065530       0xd8 arch/arm/cpu/armv7/start.o
 .rel.text.efi_load_pe
                0x000000004a065608       0x88 arch/arm/cpu/armv7/start.o
 .rel.text.efi_save_gd
                0x000000004a065690        0x8 arch/arm/cpu/armv7/start.o
 .rel.text.efi_restore_gd
                0x000000004a065698       0x10 arch/arm/cpu/armv7/start.o
 .rel.text.efi_allocate_pages_ext
                0x000000004a0656a8        0x8 arch/arm/cpu/armv7/start.o
 .rel.text.efi_free_pages_ext
                0x000000004a0656b0        0x8 arch/arm/cpu/armv7/start.o
 .rel.text.efi_get_memory_map_ext
                0x000000004a0656b8        0x8 arch/arm/cpu/armv7/start.o
 .rel.text.efi_calculate_crc32
                0x000000004a0656c0        0x8 arch/arm/cpu/armv7/start.o
 .rel.text.efi_uninstall_multiple_protocol_interfaces
                0x000000004a0656c8        0x8 arch/arm/cpu/armv7/start.o
 .rel.text.efi_install_multiple_protocol_interfaces
                0x000000004a0656d0        0x8 arch/arm/cpu/armv7/start.o
 .rel.text.efi_locate_protocol
                0x000000004a0656d8       0x18 arch/arm/cpu/armv7/start.o
 .rel.text.efi_locate_handle_buffer
                0x000000004a0656f0        0x8 arch/arm/cpu/armv7/start.o
 .rel.text.efi_protocols_per_handle
                0x000000004a0656f8        0x8 arch/arm/cpu/armv7/start.o
 .rel.text.efi_open_protocol_information
                0x000000004a065700        0x8 arch/arm/cpu/armv7/start.o
 .rel.text.efi_open_protocol
                0x000000004a065708       0x10 arch/arm/cpu/armv7/start.o
 .rel.text.efi_disconnect_controller
                0x000000004a065718        0x8 arch/arm/cpu/armv7/start.o
 .rel.text.efi_connect_controller
                0x000000004a065720        0x8 arch/arm/cpu/armv7/start.o
 .rel.text.efi_set_watchdog_timer
                0x000000004a065728        0x8 arch/arm/cpu/armv7/start.o
 .rel.text.efi_stall
                0x000000004a065730        0x8 arch/arm/cpu/armv7/start.o
 .rel.text.efi_get_next_monotonic_count
                0x000000004a065738       0x10 arch/arm/cpu/armv7/start.o
 .rel.text.efi_exit_boot_services
                0x000000004a065748       0x10 arch/arm/cpu/armv7/start.o
 .rel.text.efi_unload_image
                0x000000004a065758       0x10 arch/arm/cpu/armv7/start.o
 .rel.text.efi_start_image
                0x000000004a065768       0x18 arch/arm/cpu/armv7/start.o
 .rel.text.efi_load_image
                0x000000004a065780       0x18 arch/arm/cpu/armv7/start.o
 .rel.text.efi_locate_device_path
                0x000000004a065798        0x8 arch/arm/cpu/armv7/start.o
 .rel.text.efi_locate_handle
                0x000000004a0657a0       0x10 arch/arm/cpu/armv7/start.o
 .rel.text.efi_reinstall_protocol_interface
                0x000000004a0657b0        0x8 arch/arm/cpu/armv7/start.o
 .rel.text.efi_install_protocol_interface
                0x000000004a0657b8        0x8 arch/arm/cpu/armv7/start.o
 .rel.text.efi_check_event
                0x000000004a0657c0        0x8 arch/arm/cpu/armv7/start.o
 .rel.text.efi_close_event
                0x000000004a0657c8       0x10 arch/arm/cpu/armv7/start.o
 .rel.text.efi_signal_event
                0x000000004a0657d8        0x8 arch/arm/cpu/armv7/start.o
 .rel.text.efi_set_timer
                0x000000004a0657e0       0x18 arch/arm/cpu/armv7/start.o
 .rel.text.efi_create_event
                0x000000004a0657f8       0x10 arch/arm/cpu/armv7/start.o
 .rel.text.efi_free_pool_ext
                0x000000004a065808        0x8 arch/arm/cpu/armv7/start.o
 .rel.text.efi_allocate_pool_ext
                0x000000004a065810        0x8 arch/arm/cpu/armv7/start.o
 .rel.text.efi_restore_tpl
                0x000000004a065818        0x8 arch/arm/cpu/armv7/start.o
 .rel.text.efi_raise_tpl
                0x000000004a065820        0x8 arch/arm/cpu/armv7/start.o
 .rel.text.efi_close_protocol
                0x000000004a065828        0x8 arch/arm/cpu/armv7/start.o
 .rel.text.efi_uninstall_protocol_interface
                0x000000004a065830        0x8 arch/arm/cpu/armv7/start.o
 .rel.text.efi_register_protocol_notify
                0x000000004a065838        0x8 arch/arm/cpu/armv7/start.o
 .rel.text.efi_exit_func
                0x000000004a065840        0x8 arch/arm/cpu/armv7/start.o
 .rel.text.efi_timer_check
                0x000000004a065848        0x8 arch/arm/cpu/armv7/start.o
 .rel.text.efi_wait_for_event
                0x000000004a065850       0x10 arch/arm/cpu/armv7/start.o
 .rel.text.efi_install_configuration_table
                0x000000004a065860        0x8 arch/arm/cpu/armv7/start.o
 .rel.text.efi_install_configuration_table_ext
                0x000000004a065868        0x8 arch/arm/cpu/armv7/start.o
 .rel.text.efi_runtime_relocate
                0x000000004a065870       0x28 arch/arm/cpu/armv7/start.o
 .rel.text.efi_set_virtual_address_map
                0x000000004a065898       0x18 arch/arm/cpu/armv7/start.o
 .rel.text.efi_add_runtime_mmio
                0x000000004a0658b0        0x0 arch/arm/cpu/armv7/start.o
 .rel.text.efi_cout_enable_cursor
                0x000000004a0658b0        0x8 arch/arm/cpu/armv7/start.o
 .rel.text.efi_cout_set_cursor_position
                0x000000004a0658b8       0x10 arch/arm/cpu/armv7/start.o
 .rel.text.efi_cout_clear_screen
                0x000000004a0658c8        0x8 arch/arm/cpu/armv7/start.o
 .rel.text.efi_cout_output_string
                0x000000004a0658d0       0x10 arch/arm/cpu/armv7/start.o
 .rel.text.efi_cout_set_mode
                0x000000004a0658e0        0x8 arch/arm/cpu/armv7/start.o
 .rel.text.efi_cout_query_mode
                0x000000004a0658e8       0x20 arch/arm/cpu/armv7/start.o
 .rel.text.efi_find_free_memory
                0x000000004a065908        0x8 arch/arm/cpu/armv7/start.o
 .rel.text.efi_add_memory_map
                0x000000004a065910       0x10 arch/arm/cpu/armv7/start.o
 .rel.text.efi_get_memory_map
                0x000000004a065920        0x8 arch/arm/cpu/armv7/start.o
 .rel.text.efi_memory_init
                0x000000004a065928       0x10 arch/arm/cpu/armv7/start.o
 .rel.text.efi_disk_add_dev.part.0
                0x000000004a065938       0x48 arch/arm/cpu/armv7/start.o
 .rel.text.efi_disk_register
                0x000000004a065980       0x20 arch/arm/cpu/armv7/start.o
 .rel.text.efi_net_push
                0x000000004a0659a0        0x8 arch/arm/cpu/armv7/start.o
 .rel.text.efi_net_get_status
                0x000000004a0659a8        0x8 arch/arm/cpu/armv7/start.o
 .rel.text.efi_net_receive
                0x000000004a0659b0       0x28 arch/arm/cpu/armv7/start.o
 .rel.text.efi_net_transmit
                0x000000004a0659d8        0x8 arch/arm/cpu/armv7/start.o
 .rel.text.efi_net_set_dhcp_ack
                0x000000004a0659e0        0x8 arch/arm/cpu/armv7/start.o
 .rel.text.efi_net_register
                0x000000004a0659e8       0xa8 arch/arm/cpu/armv7/start.o
 .rel.text.efi_smbios_register
                0x000000004a065a90        0x8 arch/arm/cpu/armv7/start.o
 .rel.text.inflate_fast
                0x000000004a065a98       0x18 arch/arm/cpu/armv7/start.o
 .rel.text.inflate_table
                0x000000004a065ab0       0x20 arch/arm/cpu/armv7/start.o
 .rel.text.inflateInit2_
                0x000000004a065ad0       0x10 arch/arm/cpu/armv7/start.o
 .rel.text.inflate
                0x000000004a065ae0      0x188 arch/arm/cpu/armv7/start.o
 .rel.text.crc7
                0x000000004a065c68        0x0 arch/arm/cpu/armv7/start.o
 .rel.text.crc16_ccitt
                0x000000004a065c68        0x8 arch/arm/cpu/armv7/start.o
 .rel.text.zunzip
                0x000000004a065c70       0x28 arch/arm/cpu/armv7/start.o
 .rel.text.gunzip
                0x000000004a065c98       0x10 arch/arm/cpu/armv7/start.o
 .rel.text.smbios_write_type3
                0x000000004a065ca8        0x8 arch/arm/cpu/armv7/start.o
 .rel.text.smbios_write_type2
                0x000000004a065cb0       0x10 arch/arm/cpu/armv7/start.o
 .rel.text.smbios_write_type0
                0x000000004a065cc0       0x18 arch/arm/cpu/armv7/start.o
 .rel.text.smbios_write_type1
                0x000000004a065cd8       0x18 arch/arm/cpu/armv7/start.o
 .rel.text.smbios_write_type4
                0x000000004a065cf0        0x8 arch/arm/cpu/armv7/start.o
 .rel.text.write_smbios_table
                0x000000004a065cf8       0x18 arch/arm/cpu/armv7/start.o
 .rel.text.initcall_run_list
                0x000000004a065d10        0x8 arch/arm/cpu/armv7/start.o
 .rel.text.lmb_alloc_base
                0x000000004a065d18        0x8 arch/arm/cpu/armv7/start.o
 .rel.text.list_sort
                0x000000004a065d20        0x8 arch/arm/cpu/armv7/start.o
 .rel.text.fdt_next_tag
                0x000000004a065d28       0x48 arch/arm/cpu/armv7/start.o
 .rel.text.fdt_get_phandle
                0x000000004a065d70       0x10 arch/arm/cpu/armv7/start.o
 .rel.text.fdt_get_alias_namelen
                0x000000004a065d80        0x8 arch/arm/cpu/armv7/start.o
 .rel.text.fdt_node_check_compatible
                0x000000004a065d88        0x8 arch/arm/cpu/armv7/start.o
 .rel.text.fdt_strerror
                0x000000004a065d90       0x20 arch/arm/cpu/armv7/start.o
 .rel.text.fdt_find_regions
                0x000000004a065db0        0x0 arch/arm/cpu/armv7/start.o
 .rel.text.fdt_create_empty_tree
                0x000000004a065db0        0x0 arch/arm/cpu/armv7/start.o
 .rel.text.fdt_address_cells
                0x000000004a065db0        0x8 arch/arm/cpu/armv7/start.o
 .rel.text.fdt_size_cells
                0x000000004a065db8        0x8 arch/arm/cpu/armv7/start.o
 .rel.text.fdt_add_alias_regions
                0x000000004a065dc0        0x0 arch/arm/cpu/armv7/start.o
 .rel.text.fdt_next_region
                0x000000004a065dc0        0x0 arch/arm/cpu/armv7/start.o
 .rel.text.fdtdec_get_compatible
                0x000000004a065dc0        0x0 arch/arm/cpu/armv7/start.o
 .rel.text.fdtdec_get_is_enabled
                0x000000004a065dc0       0x10 arch/arm/cpu/armv7/start.o
 .rel.text.fdtdec_lookup
                0x000000004a065dd0        0x0 arch/arm/cpu/armv7/start.o
 .rel.text.fdtdec_next_compatible
                0x000000004a065dd0        0x0 arch/arm/cpu/armv7/start.o
 .rel.text.fdtdec_next_compatible_subnode
                0x000000004a065dd0        0x0 arch/arm/cpu/armv7/start.o
 .rel.text.fdtdec_next_alias
                0x000000004a065dd0        0x0 arch/arm/cpu/armv7/start.o
 .rel.text.fdtdec_add_aliases_for_id
                0x000000004a065dd0        0x0 arch/arm/cpu/armv7/start.o
 .rel.text.fdtdec_get_alias_seq
                0x000000004a065dd0        0x8 arch/arm/cpu/armv7/start.o
 .rel.text.fdtdec_get_chosen_prop
                0x000000004a065dd8        0x8 arch/arm/cpu/armv7/start.o
 .rel.text.fdtdec_prepare_fdt
                0x000000004a065de0        0x8 arch/arm/cpu/armv7/start.o
 .rel.text.fdtdec_get_config_int
                0x000000004a065de8        0x8 arch/arm/cpu/armv7/start.o
 .rel.text.fdtdec_get_config_bool
                0x000000004a065df0        0x0 arch/arm/cpu/armv7/start.o
 .rel.text.fdtdec_get_config_string
                0x000000004a065df0        0x8 arch/arm/cpu/armv7/start.o
 .rel.text.fdtdec_read_fmap_entry
                0x000000004a065df8        0x0 arch/arm/cpu/armv7/start.o
 .rel.text.fdtdec_decode_memory_region
                0x000000004a065df8        0x0 arch/arm/cpu/armv7/start.o
 .rel.text.fdtdec_decode_display_timing
                0x000000004a065df8        0x0 arch/arm/cpu/armv7/start.o
 .rel.text.fdtdec_setup_memory_size
                0x000000004a065df8        0x0 arch/arm/cpu/armv7/start.o
 .rel.text.fdtdec_setup_memory_banksize
                0x000000004a065df8        0x0 arch/arm/cpu/armv7/start.o
 .rel.text.fdtdec_setup
                0x000000004a065df8       0x10 arch/arm/cpu/armv7/start.o
 .rel.text.match_string
                0x000000004a065e08        0x8 arch/arm/cpu/armv7/start.o
 .rel.text.match_entry
                0x000000004a065e10        0x8 arch/arm/cpu/armv7/start.o
 .rel.text.hcreate_r
                0x000000004a065e18        0x8 arch/arm/cpu/armv7/start.o
 .rel.text.hdestroy_r
                0x000000004a065e20        0x8 arch/arm/cpu/armv7/start.o
 .rel.text.hmatch_r
                0x000000004a065e28        0x8 arch/arm/cpu/armv7/start.o
 .rel.text.hsearch_r
                0x000000004a065e30        0x8 arch/arm/cpu/armv7/start.o
 .rel.text.hdelete_r
                0x000000004a065e38        0x8 arch/arm/cpu/armv7/start.o
 .rel.text.hexport_r
                0x000000004a065e40       0x18 arch/arm/cpu/armv7/start.o
 .rel.text.himport_r
                0x000000004a065e58       0x20 arch/arm/cpu/armv7/start.o
 .rel.text.display_options
                0x000000004a065e78       0x10 arch/arm/cpu/armv7/start.o
 .rel.text.print_freq
                0x000000004a065e88        0x0 arch/arm/cpu/armv7/start.o
 .rel.text.print_size
                0x000000004a065e88       0x28 arch/arm/cpu/armv7/start.o
 .rel.text.print_buffer
                0x000000004a065eb0       0x28 arch/arm/cpu/armv7/start.o
 .rel.text.crc32_no_comp
                0x000000004a065ed8        0x8 arch/arm/cpu/armv7/start.o
 .rel.text.hang
                0x000000004a065ee0        0x8 arch/arm/cpu/armv7/start.o
 .rel.text.skip_spaces
                0x000000004a065ee8        0x8 arch/arm/cpu/armv7/start.o
 .rel.text.strim
                0x000000004a065ef0        0x8 arch/arm/cpu/armv7/start.o
 .rel.text.emit
                0x000000004a065ef8        0x8 arch/arm/cpu/armv7/start.o
 .rel.text.store_char_in_data
                0x000000004a065f00        0x8 arch/arm/cpu/armv7/start.o
 .rel.text.match
                0x000000004a065f08       0x98 arch/arm/cpu/armv7/start.o
 .rel.text.quantifier
                0x000000004a065fa0        0x8 arch/arm/cpu/armv7/start.o
 .rel.text.fixup_branch
                0x000000004a065fa8        0x8 arch/arm/cpu/armv7/start.o
 .rel.text.compile
                0x000000004a065fb0       0x28 arch/arm/cpu/armv7/start.o
 .rel.text.slre_compile
                0x000000004a065fd8        0x8 arch/arm/cpu/armv7/start.o
 .rel.text.strncasecmp
                0x000000004a065fe0        0x8 arch/arm/cpu/armv7/start.o
 .rel.text.strtok
                0x000000004a065fe8        0x0 arch/arm/cpu/armv7/start.o
 .rel.text.uuid_str_valid
                0x000000004a065fe8        0x8 arch/arm/cpu/armv7/start.o
 .rel.text.uuid_bin_to_str
                0x000000004a065ff0       0x18 arch/arm/cpu/armv7/start.o
 .rel.text.number
                0x000000004a066008        0x8 arch/arm/cpu/armv7/start.o
 .rel.text.string
                0x000000004a066010        0x8 arch/arm/cpu/armv7/start.o
 .rel.text.vsnprintf_internal
                0x000000004a066018       0x10 arch/arm/cpu/armv7/start.o
 .rel.text.__assert_fail
                0x000000004a066028        0x0 arch/arm/cpu/armv7/start.o
 .rel.text.simple_itoa
                0x000000004a066028        0x8 arch/arm/cpu/armv7/start.o
 .rel.text.print_grouped_ull
                0x000000004a066030        0x0 arch/arm/cpu/armv7/start.o
 .rel.text.simple_strtoul
                0x000000004a066030        0x8 arch/arm/cpu/armv7/start.o
 .rel.text.simple_strtoull
                0x000000004a066038        0x8 arch/arm/cpu/armv7/start.o
 .rel.text.trailing_strtoln
                0x000000004a066040        0x8 arch/arm/cpu/armv7/start.o
 .rel.text.strmhz
                0x000000004a066048        0x0 arch/arm/cpu/armv7/start.o
 .rel.rodata.efi_boot_services
                0x000000004a066048      0x150 arch/arm/cpu/armv7/start.o
 .rel.rodata.efi_runtime_detach_list
                0x000000004a066198       0x50 arch/arm/cpu/armv7/start.o
 .rel.rodata.efi_con_out
                0x000000004a0661e8       0x50 arch/arm/cpu/armv7/start.o
 .rel.rodata.efi_console_control
                0x000000004a066238       0x18 arch/arm/cpu/armv7/start.o
 .rel.rodata.efi_con_in
                0x000000004a066250       0x10 arch/arm/cpu/armv7/start.o
 .rel.rodata.z_errmsg
                0x000000004a066260        0x0 arch/arm/cpu/armv7/start.o
 .rel.rodata.smbios_write_funcs
                0x000000004a066260       0x38 arch/arm/cpu/armv7/start.o
 .rel.rodata.fdt_errtable
                0x000000004a066298       0x88 arch/arm/cpu/armv7/start.o
 .rel.rodata.compat_names
                0x000000004a066320        0x0 arch/arm/cpu/armv7/start.o
 .rel.data.loaded_image_info_obj.8029
                0x000000004a066320       0x10 arch/arm/cpu/armv7/start.o
 .rel.data.efi_obj_list
                0x000000004a066330       0x10 arch/arm/cpu/armv7/start.o
 .rel.data.efi_runtime_mmio
                0x000000004a066340       0x10 arch/arm/cpu/armv7/start.o
 .rel.data.efi_mem
                0x000000004a066350       0x10 arch/arm/cpu/armv7/start.o
 .rel.data.current
                0x000000004a066360        0x0 arch/arm/cpu/armv7/start.o
 .rel.text.arp_init
                0x000000004a066360       0x30 arch/arm/cpu/armv7/start.o
 .rel.text.arp_raw_request
                0x000000004a066390       0x18 arch/arm/cpu/armv7/start.o
 .rel.text.arp_request
                0x000000004a0663a8       0x38 arch/arm/cpu/armv7/start.o
 .rel.text.arp_timeout_check
                0x000000004a0663e0       0x28 arch/arm/cpu/armv7/start.o
 .rel.text.arp_receive
                0x000000004a066408       0x40 arch/arm/cpu/armv7/start.o
 .rel.text.dhcp_extended
                0x000000004a066448       0x28 arch/arm/cpu/armv7/start.o
 .rel.text.dhcp_process_options
                0x000000004a066470       0x68 arch/arm/cpu/armv7/start.o
 .rel.text.dhcp_packet_process_options
                0x000000004a0664d8        0x8 arch/arm/cpu/armv7/start.o
 .rel.text.dhcp_handler
                0x000000004a0664e0       0x90 arch/arm/cpu/armv7/start.o
 .rel.text.bootp_reset
                0x000000004a066570       0x20 arch/arm/cpu/armv7/start.o
 .rel.text.bootp_request
                0x000000004a066590       0x78 arch/arm/cpu/armv7/start.o
 .rel.text.bootp_timeout_handler
                0x000000004a066608       0x28 arch/arm/cpu/armv7/start.o
 .rel.text.eth_write_hwaddr
                0x000000004a066630       0x10 arch/arm/cpu/armv7/start.o
 .rel.text.eth_post_probe
                0x000000004a066640       0x30 arch/arm/cpu/armv7/start.o
 .rel.text.eth_post_bind
                0x000000004a066670        0x8 arch/arm/cpu/armv7/start.o
 .rel.text.eth_get_dev
                0x000000004a066678        0x8 arch/arm/cpu/armv7/start.o
 .rel.text.eth_set_dev
                0x000000004a066680        0x8 arch/arm/cpu/armv7/start.o
 .rel.text.eth_get_dev_by_name
                0x000000004a066688        0x8 arch/arm/cpu/armv7/start.o
 .rel.text.eth_init
                0x000000004a066690       0x28 arch/arm/cpu/armv7/start.o
 .rel.text.eth_initialize
                0x000000004a0666b8       0x28 arch/arm/cpu/armv7/start.o
 .rel.text.eth_setenv_enetaddr
                0x000000004a0666e0        0x8 arch/arm/cpu/armv7/start.o
 .rel.text.eth_getenv_enetaddr_by_index
                0x000000004a0666e8       0x10 arch/arm/cpu/armv7/start.o
 .rel.text.eth_setenv_enetaddr_by_index
                0x000000004a0666f8       0x10 arch/arm/cpu/armv7/start.o
 .rel.text.eth_mac_skip
                0x000000004a066708       0x10 arch/arm/cpu/armv7/start.o
 .rel.text.eth_get_name
                0x000000004a066718        0x8 arch/arm/cpu/armv7/start.o
 .rel.text.eth_current_changed
                0x000000004a066720       0x18 arch/arm/cpu/armv7/start.o
 .rel.text.eth_try_another
                0x000000004a066738       0x20 arch/arm/cpu/armv7/start.o
 .rel.text.eth_set_current
                0x000000004a066758       0x20 arch/arm/cpu/armv7/start.o
 .rel.text.net_clear_handlers
                0x000000004a066778       0x20 arch/arm/cpu/armv7/start.o
 .rel.text.start_again_timeout_handler
                0x000000004a066798        0x8 arch/arm/cpu/armv7/start.o
 .rel.text.on_ipaddr
                0x000000004a0667a0        0x8 arch/arm/cpu/armv7/start.o
 .rel.text.on_gatewayip
                0x000000004a0667a8        0x8 arch/arm/cpu/armv7/start.o
 .rel.text.on_netmask
                0x000000004a0667b0        0x8 arch/arm/cpu/armv7/start.o
 .rel.text.on_serverip
                0x000000004a0667b8        0x8 arch/arm/cpu/armv7/start.o
 .rel.text.net_init_loop
                0x000000004a0667c0        0x8 arch/arm/cpu/armv7/start.o
 .rel.text.net_auto_load
                0x000000004a0667c8       0x18 arch/arm/cpu/armv7/start.o
 .rel.text.net_init
                0x000000004a0667e0       0x20 arch/arm/cpu/armv7/start.o
 .rel.text.net_start_again
                0x000000004a066800       0x78 arch/arm/cpu/armv7/start.o
 .rel.text.net_loop
                0x000000004a066878      0x180 arch/arm/cpu/armv7/start.o
 .rel.text.net_get_udp_handler
                0x000000004a0669f8        0x0 arch/arm/cpu/armv7/start.o
 .rel.text.net_set_udp_handler
                0x000000004a0669f8       0x10 arch/arm/cpu/armv7/start.o
 .rel.text.net_get_arp_handler
                0x000000004a066a08        0x8 arch/arm/cpu/armv7/start.o
 .rel.text.net_set_arp_handler
                0x000000004a066a10        0x0 arch/arm/cpu/armv7/start.o
 .rel.text.net_set_timeout_handler
                0x000000004a066a10       0x18 arch/arm/cpu/armv7/start.o
 .rel.text.net_process_received_packet
                0x000000004a066a28       0x40 arch/arm/cpu/armv7/start.o
 .rel.text.net_eth_hdr_size
                0x000000004a066a68        0x8 arch/arm/cpu/armv7/start.o
 .rel.text.net_set_ether
                0x000000004a066a70       0x10 arch/arm/cpu/armv7/start.o
 .rel.text.net_update_ether
                0x000000004a066a80        0x8 arch/arm/cpu/armv7/start.o
 .rel.text.net_set_ip_header
                0x000000004a066a88        0x8 arch/arm/cpu/armv7/start.o
 .rel.text.net_set_udp_header
                0x000000004a066a90        0x8 arch/arm/cpu/armv7/start.o
 .rel.text.net_send_udp_packet
                0x000000004a066a98       0x40 arch/arm/cpu/armv7/start.o
 .rel.text.on_bootfile
                0x000000004a066ad8        0x8 arch/arm/cpu/armv7/start.o
 .rel.text.ip_to_string
                0x000000004a066ae0        0x8 arch/arm/cpu/armv7/start.o
 .rel.text.vlan_to_string
                0x000000004a066ae8        0x0 arch/arm/cpu/armv7/start.o
 .rel.text.on_nvlan
                0x000000004a066ae8        0x8 arch/arm/cpu/armv7/start.o
 .rel.text.on_vlan
                0x000000004a066af0        0x8 arch/arm/cpu/armv7/start.o
 .rel.text.rpc_lookup_reply
                0x000000004a066af8       0x18 arch/arm/cpu/armv7/start.o
 .rel.text.nfs_mount_reply
                0x000000004a066b10       0x18 arch/arm/cpu/armv7/start.o
 .rel.text.nfs_umountall_reply
                0x000000004a066b28       0x18 arch/arm/cpu/armv7/start.o
 .rel.text.nfs_lookup_reply
                0x000000004a066b40       0x30 arch/arm/cpu/armv7/start.o
 .rel.text.nfs_readlink_reply
                0x000000004a066b70       0x20 arch/arm/cpu/armv7/start.o
 .rel.text.rpc_req
                0x000000004a066b90       0x40 arch/arm/cpu/armv7/start.o
 .rel.text.nfs_umountall_req
                0x000000004a066bd0       0x10 arch/arm/cpu/armv7/start.o
 .rel.text.nfs_read_reply.isra.0
                0x000000004a066be0       0x30 arch/arm/cpu/armv7/start.o
 .rel.text.nfs_readlink_req
                0x000000004a066c10       0x18 arch/arm/cpu/armv7/start.o
 .rel.text.nfs_lookup_req
                0x000000004a066c28       0x10 arch/arm/cpu/armv7/start.o
 .rel.text.nfs_read_req
                0x000000004a066c38       0x18 arch/arm/cpu/armv7/start.o
 .rel.text.nfs_send
                0x000000004a066c50       0x68 arch/arm/cpu/armv7/start.o
 .rel.text.nfs_handler
                0x000000004a066cb8       0xa8 arch/arm/cpu/armv7/start.o
 .rel.text.nfs_timeout_handler
                0x000000004a066d60       0x20 arch/arm/cpu/armv7/start.o
 .rel.text.nfs_start
                0x000000004a066d80       0x88 arch/arm/cpu/armv7/start.o
 .rel.text.ping_timeout_handler
                0x000000004a066e08        0x8 arch/arm/cpu/armv7/start.o
 .rel.text.ping_start
                0x000000004a066e10       0x58 arch/arm/cpu/armv7/start.o
 .rel.text.ping_receive
                0x000000004a066e68       0x18 arch/arm/cpu/armv7/start.o
 .rel.text.tftp_send
                0x000000004a066e80       0xb8 arch/arm/cpu/armv7/start.o
 .rel.text.tftp_handler
                0x000000004a066f38       0xd0 arch/arm/cpu/armv7/start.o
 .rel.text.tftp_timeout_handler
                0x000000004a067008       0x40 arch/arm/cpu/armv7/start.o
 .rel.text.tftp_start
                0x000000004a067048      0x148 arch/arm/cpu/armv7/start.o
 .rel.u_boot_list_2_uclass_2_eth
                0x000000004a067190       0x28 arch/arm/cpu/armv7/start.o
 .rel.u_boot_list_2_env_clbk_2_ethaddr
                0x000000004a0671b8       0x10 arch/arm/cpu/armv7/start.o
 .rel.u_boot_list_2_env_clbk_2_ipaddr
                0x000000004a0671c8       0x10 arch/arm/cpu/armv7/start.o
 .rel.u_boot_list_2_env_clbk_2_vlan
                0x000000004a0671d8       0x10 arch/arm/cpu/armv7/start.o
 .rel.u_boot_list_2_env_clbk_2_serverip
                0x000000004a0671e8       0x10 arch/arm/cpu/armv7/start.o
 .rel.u_boot_list_2_env_clbk_2_nvlan
                0x000000004a0671f8       0x10 arch/arm/cpu/armv7/start.o
 .rel.u_boot_list_2_env_clbk_2_bootfile
                0x000000004a067208       0x10 arch/arm/cpu/armv7/start.o
 .rel.u_boot_list_2_env_clbk_2_netmask
                0x000000004a067218       0x10 arch/arm/cpu/armv7/start.o
 .rel.u_boot_list_2_env_clbk_2_gatewayip
                0x000000004a067228       0x10 arch/arm/cpu/armv7/start.o
 .rel.text.do_dm
                0x000000004a067238        0x8 arch/arm/cpu/armv7/start.o
 .rel.u_boot_list_2_cmd_2_dm
                0x000000004a067240       0x20 arch/arm/cpu/armv7/start.o
 .rel.data.test_commands
                0x000000004a067260       0x60 arch/arm/cpu/armv7/start.o
 .rel.text.raise
                0x000000004a0672c0        0x0 arch/arm/cpu/armv7/start.o

.rel_dyn_end    0x000000004a0672c0        0x0
 *(.__rel_dyn_end)
 .__rel_dyn_end
                0x000000004a0672c0        0x0 arch/arm/lib/built-in.o

.end            0x000000004a0672c0        0x0
 *(.__end)
 .__end         0x000000004a0672c0        0x0 arch/arm/lib/built-in.o
                0x000000004a0672c0                _image_binary_end = .
                0x000000004a068000                . = ALIGN (0x1000)

.mmutable
 *(.mmutable)

.bss_start      0x000000004a05d358        0x0
 *(.__bss_start)
 .__bss_start   0x000000004a05d358        0x0 arch/arm/lib/built-in.o
                0x000000004a05d358                __bss_start
                0x000000004a05d358                __bss_base = .

.bss            0x000000004a05d358    0x3b6ac
 *(.bss*)
 .bss.params    0x000000004a05d358        0x4 arch/arm/lib/built-in.o
 .bss.initial_usb_scan_delay
                0x000000004a05d35c        0x4 arch/arm/mach-sunxi/built-in.o
 .bss.working_fdt
                0x000000004a05d360        0x4 cmd/built-in.o
                0x000000004a05d360                working_fdt
 .bss.data.7987
                0x000000004a05d364      0x400 cmd/built-in.o
 .bss.i2c_mm_last_addr
                0x000000004a05d764        0x4 cmd/built-in.o
 .bss.i2c_mm_last_chip
                0x000000004a05d768        0x4 cmd/built-in.o
 .bss.i2c_dp_last_chip
                0x000000004a05d76c        0x4 cmd/built-in.o
 .bss.i2c_mm_last_alen
                0x000000004a05d770        0x4 cmd/built-in.o
 .bss.i2c_dp_last_addr
                0x000000004a05d774        0x4 cmd/built-in.o
 .bss.i2c_dp_last_alen
                0x000000004a05d778        0x4 cmd/built-in.o
 .bss.send_parms
                0x000000004a05d77c       0x14 cmd/built-in.o
 .bss.os_data_addr_saved
                0x000000004a05d790        0x4 cmd/built-in.o
 .bss.his_pad_char
                0x000000004a05d794        0x1 cmd/built-in.o
 .bss.a_b       0x000000004a05d795       0x18 cmd/built-in.o
 *fill*         0x000000004a05d7ad        0x3 
 .bss.os_data_char
                0x000000004a05d7b0        0x4 cmd/built-in.o
 .bss.os_data_state
                0x000000004a05d7b4        0x4 cmd/built-in.o
 .bss.k_data_escape
                0x000000004a05d7b8        0x4 cmd/built-in.o
 .bss.os_data_state_saved
                0x000000004a05d7bc        0x4 cmd/built-in.o
 .bss.os_data_addr
                0x000000004a05d7c0        0x4 cmd/built-in.o
 .bss.send_ptr  0x000000004a05d7c4        0x4 cmd/built-in.o
 .bss.his_pad_count
                0x000000004a05d7c8        0x4 cmd/built-in.o
 .bss.bin_start_address
                0x000000004a05d7cc        0x4 cmd/built-in.o
 .bss.his_quote
                0x000000004a05d7d0        0x1 cmd/built-in.o
 *fill*         0x000000004a05d7d1        0x3 
 .bss.os_data_init
                0x000000004a05d7d4        0x4 cmd/built-in.o
 .bss.his_eol   0x000000004a05d7d8        0x1 cmd/built-in.o
 *fill*         0x000000004a05d7d9        0x3 
 .bss.k_data_escape_saved
                0x000000004a05d7dc        0x4 cmd/built-in.o
 .bss.dp_last_addr
                0x000000004a05d7e0        0x4 cmd/built-in.o
 .bss.base_address
                0x000000004a05d7e4        0x4 cmd/built-in.o
 .bss.mm_last_size
                0x000000004a05d7e8        0x4 cmd/built-in.o
 .bss.mm_last_addr
                0x000000004a05d7ec        0x4 cmd/built-in.o
 .bss.dp_last_size
                0x000000004a05d7f0        0x4 cmd/built-in.o
 .bss.last_data
                0x000000004a05d7f4        0x8 cmd/built-in.o
 .bss.last_reg_hi
                0x000000004a05d7fc        0x8 cmd/built-in.o
 .bss.last_mask
                0x000000004a05d804        0x4 cmd/built-in.o
 .bss.last_addr_lo
                0x000000004a05d808        0x8 cmd/built-in.o
 .bss.last_op   0x000000004a05d810        0x4 cmd/built-in.o
 .bss.last_addr_hi
                0x000000004a05d814        0x8 cmd/built-in.o
 .bss.last_reg_lo
                0x000000004a05d81c        0x8 cmd/built-in.o
 .bss.last_devad_hi
                0x000000004a05d824        0x4 cmd/built-in.o
 .bss.last_devad_lo
                0x000000004a05d828        0x4 cmd/built-in.o
 .bss.do_getfile
                0x000000004a05d82c        0x4 cmd/built-in.o
 .bss.is_pxe    0x000000004a05d830        0x1 cmd/built-in.o
 *fill*         0x000000004a05d831        0x3 
 .bss.fs_argv   0x000000004a05d834       0x14 cmd/built-in.o
 .bss.scsi_curr_dev
                0x000000004a05d848        0x4 cmd/built-in.o
 .bss.flag_repeat
                0x000000004a05d84c        0x4 common/built-in.o
 .bss.buf.7651  0x000000004a05d850       0x28 common/built-in.o
 .bss.the_command.7451
                0x000000004a05d878      0x401 common/built-in.o
 *fill*         0x000000004a05dc79        0x3 
 .bss.ifs       0x000000004a05dc7c        0x4 common/built-in.o
 .bss.last_return_code
                0x000000004a05dc80        0x4 common/built-in.o
 .bss.map       0x000000004a05dc84      0x100 common/built-in.o
 .bss.do_repeat
                0x000000004a05dd84        0x4 common/built-in.o
 .bss.top_vars  0x000000004a05dd88        0x4 common/built-in.o
 .bss.stored_bootdelay
                0x000000004a05dd8c        0x4 common/built-in.o
 .bss.monitor_flash_len
                0x000000004a05dd90        0x4 common/built-in.o
                0x000000004a05dd90                monitor_flash_len
 .bss.images    0x000000004a05dd94      0x130 common/built-in.o
                0x000000004a05dd94                images
 .bss.callback_list
                0x000000004a05dec4        0x4 common/built-in.o
 .bss.flags_list
                0x000000004a05dec8        0x4 common/built-in.o
 .bss.current_mii
                0x000000004a05decc        0x4 common/built-in.o
 .bss.mii_devs  0x000000004a05ded0        0x8 common/built-in.o
 .bss.usb_started
                0x000000004a05ded8        0x1 common/built-in.o
                0x000000004a05ded8                usb_started
 *fill*         0x000000004a05ded9        0x3 
 .bss.running.9777
                0x000000004a05dedc        0x4 common/built-in.o
 .bss.usb_hub_index
                0x000000004a05dee0        0x4 common/built-in.o
 .bss.hub_dev   0x000000004a05dee4      0x380 common/built-in.o
 .bss.usb_stor  0x000000004a05e264      0x16c common/built-in.o
 .bss.usb_dev_desc
                0x000000004a05e3d0      0x348 common/built-in.o
 .bss.usb_max_devs
                0x000000004a05e718        0x4 common/built-in.o
 .bss.CBWTag    0x000000004a05e71c        0x4 common/built-in.o
 *fill*         0x000000004a05e720       0x20 
 .bss.usb_ccb   0x000000004a05e740       0xc0 common/built-in.o
 .bss.scsi_dev_desc
                0x000000004a05e800       0x78 common/built-in.o
 .bss.tempbuff  0x000000004a05e878      0x200 common/built-in.o
 .bss.scsi_max_devs
                0x000000004a05ea78        0x4 common/built-in.o
 *fill*         0x000000004a05ea7c        0x4 
 .bss.tempccb   0x000000004a05ea80       0xc0 common/built-in.o
 .bss.kbd_testc_tms
                0x000000004a05eb40        0x4 common/built-in.o
 .bss.ctrlc_was_pressed
                0x000000004a05eb44        0x4 common/built-in.o
 .bss.cd_count  0x000000004a05eb48        0xc common/built-in.o
                0x000000004a05eb48                cd_count
 .bss.tstcdev   0x000000004a05eb54        0x4 common/built-in.o
 .bss.ctrlc_disabled
                0x000000004a05eb58        0x4 common/built-in.o
 .bss.console_devices
                0x000000004a05eb5c        0xc common/built-in.o
                0x000000004a05eb5c                console_devices
 .bss.max_total_mem
                0x000000004a05eb68        0x4 common/built-in.o
 .bss.mem_malloc_brk
                0x000000004a05eb6c        0x4 common/built-in.o
                0x000000004a05eb6c                mem_malloc_brk
 .bss.max_sbrked_mem
                0x000000004a05eb70        0x4 common/built-in.o
 .bss.current_mallinfo
                0x000000004a05eb74       0x28 common/built-in.o
 .bss.mem_malloc_end
                0x000000004a05eb9c        0x4 common/built-in.o
                0x000000004a05eb9c                mem_malloc_end
 .bss.top_pad   0x000000004a05eba0        0x4 common/built-in.o
 .bss.mem_malloc_start
                0x000000004a05eba4        0x4 common/built-in.o
                0x000000004a05eba4                mem_malloc_start
 .bss.stdio_devices
                0x000000004a05eba8        0xc common/built-in.o
                0x000000004a05eba8                stdio_devices
 .bss.devs      0x000000004a05ebb4       0x4c common/built-in.o
 .bss.hist_list
                0x000000004a05ec00       0x50 common/built-in.o
 .bss.hist_lines
                0x000000004a05ec50     0x5014 common/built-in.o
 .bss.hist_max  0x000000004a063c64        0x4 common/built-in.o
 .bss.initted.7246
                0x000000004a063c68        0x4 common/built-in.o
 .bss.hist_add_idx
                0x000000004a063c6c        0x4 common/built-in.o
 .bss.hist_num  0x000000004a063c70        0x4 common/built-in.o
 .bss.console_buffer
                0x000000004a063c74      0x401 common/built-in.o
                0x000000004a063c74                console_buffer
 .bss.tmp_buf.7210
                0x000000004a064075      0x200 common/built-in.o
 .bss.tmp_buf   0x000000004a064275      0x400 common/built-in.o
 *fill*         0x000000004a064675        0x3 
 .bss.xyz       0x000000004a064678      0x434 common/built-in.o
 .bss.tmpbuf    0x000000004a064aac      0x800 disk/built-in.o
 .bss.name.8390
                0x000000004a0652ac       0x25 disk/built-in.o
 *fill*         0x000000004a0652d1        0x3 
 .bss.ataid     0x000000004a0652d4       0x80 drivers/built-in.o
                0x000000004a0652d4                ataid
 .bss.probe_ent
                0x000000004a065354        0x4 drivers/built-in.o
                0x000000004a065354                probe_ent
 .bss.cursor_state
                0x000000004a065358        0x4 drivers/built-in.o
 .bss.video_console_address
                0x000000004a06535c        0x4 drivers/built-in.o
 .bss.console_row
                0x000000004a065360        0x4 drivers/built-in.o
 .bss.old_col   0x000000004a065364        0x4 drivers/built-in.o
 .bss.old_row   0x000000004a065368        0x4 drivers/built-in.o
 .bss.eorx      0x000000004a06536c        0x4 drivers/built-in.o
 .bss.bgx       0x000000004a065370        0x4 drivers/built-in.o
 .bss.console_col
                0x000000004a065374        0x4 drivers/built-in.o
 .bss.video_fb_address
                0x000000004a065378        0x4 drivers/built-in.o
 .bss.pGD       0x000000004a06537c        0x4 drivers/built-in.o
 .bss.cfb_do_flush_cache
                0x000000004a065380        0x4 drivers/built-in.o
 .bss.fgx       0x000000004a065384        0x4 drivers/built-in.o
 .bss.sunxi_display
                0x000000004a065388       0xa0 drivers/built-in.o
                0x000000004a065388                sunxi_display
 .bss.mmc_devices
                0x000000004a065428        0x8 drivers/mmc/built-in.o
 .bss.initialized.9570
                0x000000004a065430        0x4 drivers/mmc/built-in.o
 .bss.mmc_host  0x000000004a065434       0xc0 drivers/mmc/built-in.o
                0x000000004a065434                mmc_host
 .bss.asynch_allowed
                0x000000004a0654f4        0x1 drivers/usb/host/built-in.o
 *fill*         0x000000004a0654f5        0x3 
 .bss.fs_partition
                0x000000004a0654f8       0x80 fs/built-in.o
 .bss.fs_type   0x000000004a065578        0x4 fs/built-in.o
 .bss.fs_dev_desc
                0x000000004a06557c        0x4 fs/built-in.o
 .bss.ext_fs    0x000000004a065580       0x48 fs/built-in.o
                0x000000004a065580                ext_fs
 .bss.ext4fs_indir3_block
                0x000000004a0655c8        0x4 fs/built-in.o
                0x000000004a0655c8                ext4fs_indir3_block
 .bss.ext4fs_root
                0x000000004a0655cc        0x4 fs/built-in.o
                0x000000004a0655cc                ext4fs_root
 .bss.ext4fs_indir3_size
                0x000000004a0655d0        0x4 fs/built-in.o
                0x000000004a0655d0                ext4fs_indir3_size
 .bss.ext4fs_indir1_block
                0x000000004a0655d4        0x4 fs/built-in.o
                0x000000004a0655d4                ext4fs_indir1_block
 .bss.ext4fs_indir2_size
                0x000000004a0655d8        0x4 fs/built-in.o
                0x000000004a0655d8                ext4fs_indir2_size
 .bss.ext4fs_indir2_block
                0x000000004a0655dc        0x4 fs/built-in.o
                0x000000004a0655dc                ext4fs_indir2_block
 .bss.ext4fs_indir1_size
                0x000000004a0655e0        0x4 fs/built-in.o
                0x000000004a0655e0                ext4fs_indir1_size
 .bss.symlinknest
                0x000000004a0655e4        0x4 fs/built-in.o
 .bss.ext4fs_file
                0x000000004a0655e8        0x4 fs/built-in.o
                0x000000004a0655e8                ext4fs_file
 .bss.part_info
                0x000000004a0655ec        0x4 fs/built-in.o
 .bss.part_offset
                0x000000004a0655f0        0x8 fs/built-in.o
                0x000000004a0655f0                part_offset
 .bss.ext4fs_blk_desc
                0x000000004a0655f8        0x4 fs/built-in.o
 *fill*         0x000000004a0655fc        0x4 
 .bss.get_contents_vfatname_block
                0x000000004a065600    0x10000 fs/built-in.o
                0x000000004a065600                get_contents_vfatname_block
 .bss.do_fat_read_at_block
                0x000000004a075600    0x10000 fs/built-in.o
                0x000000004a075600                do_fat_read_at_block
 .bss.get_dentfromdir_block
                0x000000004a085600    0x10000 fs/built-in.o
                0x000000004a085600                get_dentfromdir_block
 .bss.empty_dentptr
                0x000000004a095600        0x4 fs/built-in.o
 *fill*         0x000000004a095604        0x4 
 .bss.cur_part_info
                0x000000004a095608       0x80 fs/built-in.o
 .bss.total_sector
                0x000000004a095688        0x4 fs/built-in.o
 .bss.dir_curclust
                0x000000004a09568c        0x4 fs/built-in.o
 .bss.num_of_fats
                0x000000004a095690        0x1 fs/built-in.o
 *fill*         0x000000004a095691        0x3 
 .bss.cur_dev   0x000000004a095694        0x4 fs/built-in.o
 .bss.mono.8077
                0x000000004a095698        0x8 lib/built-in.o
 .bss.app_gd    0x000000004a0956a0        0x4 lib/built-in.o
 .bss.efi_gd    0x000000004a0956a4        0x4 lib/built-in.o
 .bss.console_size_queried
                0x000000004a0956a8        0x1 lib/built-in.o
 .bss.new_rx_packet
                0x000000004a0956a9        0x1 lib/built-in.o
 *fill*         0x000000004a0956aa        0x2 
 .bss.dhcp_ack  0x000000004a0956ac        0x4 lib/built-in.o
 .bss.new_tx_packet
                0x000000004a0956b0        0x4 lib/built-in.o
 .bss.errno     0x000000004a0956b4        0x4 lib/built-in.o
                0x000000004a0956b4                errno
 .bss.local.7368
                0x000000004a0956b8       0x16 lib/built-in.o
 .bss.arp_tx_packet_buf
                0x000000004a0956ce      0x640 net/built-in.o
 *fill*         0x000000004a095d0e        0x2 
 .bss.arp_wait_packet_ethaddr
                0x000000004a095d10        0x4 net/built-in.o
                0x000000004a095d10                arp_wait_packet_ethaddr
 .bss.arp_tx_packet
                0x000000004a095d14        0x4 net/built-in.o
 .bss.arp_wait_tx_packet_size
                0x000000004a095d18        0x4 net/built-in.o
                0x000000004a095d18                arp_wait_tx_packet_size
 .bss.arp_wait_try
                0x000000004a095d1c        0x4 net/built-in.o
                0x000000004a095d1c                arp_wait_try
 .bss.net_arp_wait_reply_ip
                0x000000004a095d20        0x4 net/built-in.o
 .bss.net_arp_wait_packet_ip
                0x000000004a095d24        0x4 net/built-in.o
                0x000000004a095d24                net_arp_wait_packet_ip
 .bss.arp_wait_timer_start
                0x000000004a095d28        0x4 net/built-in.o
                0x000000004a095d28                arp_wait_timer_start
 .bss.dhcp_state
                0x000000004a095d2c        0x4 net/built-in.o
 .bss.net_hostname
                0x000000004a095d30       0x20 net/built-in.o
                0x000000004a095d30                net_hostname
 .bss.bootp_timeout
                0x000000004a095d50        0x4 net/built-in.o
                0x000000004a095d50                bootp_timeout
 .bss.dhcp_server_ip
                0x000000004a095d54        0x4 net/built-in.o
 .bss.dhcp_option_overload
                0x000000004a095d58        0x1 net/built-in.o
 *fill*         0x000000004a095d59        0x3 
 .bss.time_taken_max
                0x000000004a095d5c        0x4 net/built-in.o
 .bss.net_root_path
                0x000000004a095d60       0x40 net/built-in.o
                0x000000004a095d60                net_root_path
 .bss.bootp_ids
                0x000000004a095da0       0x10 net/built-in.o
                0x000000004a095da0                bootp_ids
 .bss.bootp_num_ids
                0x000000004a095db0        0x4 net/built-in.o
                0x000000004a095db0                bootp_num_ids
 .bss.bootp_try
                0x000000004a095db4        0x4 net/built-in.o
                0x000000004a095db4                bootp_try
 .bss.bootp_start
                0x000000004a095db8        0x4 net/built-in.o
                0x000000004a095db8                bootp_start
 .bss.dhcp_leasetime
                0x000000004a095dbc        0x4 net/built-in.o
 .bss.net_nis_domain
                0x000000004a095dc0       0x20 net/built-in.o
                0x000000004a095dc0                net_nis_domain
 .bss.eth_errno
                0x000000004a095de0        0x4 net/built-in.o
 .bss.env_changed_id.9309
                0x000000004a095de4        0x4 net/built-in.o
 .bss.act.9308  0x000000004a095de8        0x4 net/built-in.o
 .bss.first_failed.9303
                0x000000004a095dec        0x4 net/built-in.o
 .bss.net_ethaddr
                0x000000004a095df0        0x6 net/built-in.o
                0x000000004a095df0                net_ethaddr
 *fill*         0x000000004a095df6        0x2 
 .bss.net_dns_server
                0x000000004a095df8        0x4 net/built-in.o
                0x000000004a095df8                net_dns_server
 .bss.net_state
                0x000000004a095dfc        0x4 net/built-in.o
                0x000000004a095dfc                net_state
 .bss.net_server_ip
                0x000000004a095e00        0x4 net/built-in.o
                0x000000004a095e00                net_server_ip
 .bss.net_rx_packet
                0x000000004a095e04        0x4 net/built-in.o
                0x000000004a095e04                net_rx_packet
 .bss.net_boot_file_expected_size_in_blocks
                0x000000004a095e08        0x4 net/built-in.o
                0x000000004a095e08                net_boot_file_expected_size_in_blocks
 .bss.net_rx_packets
                0x000000004a095e0c       0x10 net/built-in.o
                0x000000004a095e0c                net_rx_packets
 .bss.time_start
                0x000000004a095e1c        0x8 net/built-in.o
 .bss.net_gateway
                0x000000004a095e24        0x4 net/built-in.o
                0x000000004a095e24                net_gateway
 .bss.net_boot_file_name
                0x000000004a095e28      0x400 net/built-in.o
                0x000000004a095e28                net_boot_file_name
 .bss.udp_packet_handler
                0x000000004a096228        0x4 net/built-in.o
 .bss.net_dev_exists
                0x000000004a09622c        0x4 net/built-in.o
 .bss.net_try_count
                0x000000004a096230        0x4 net/built-in.o
 .bss.net_server_ethaddr
                0x000000004a096234        0x6 net/built-in.o
                0x000000004a096234                net_server_ethaddr
 .bss.net_null_ethaddr
                0x000000004a09623a        0x6 net/built-in.o
                0x000000004a09623a                net_null_ethaddr
 .bss.net_restart_wrap
                0x000000004a096240        0x4 net/built-in.o
                0x000000004a096240                net_restart_wrap
 .bss.net_busy_flag
                0x000000004a096244        0x4 net/built-in.o
                0x000000004a096244                net_busy_flag
 .bss.net_restarted
                0x000000004a096248        0x4 net/built-in.o
 .bss.net_ip_id
                0x000000004a09624c        0x4 net/built-in.o
 .bss.time_delta
                0x000000004a096250        0x4 net/built-in.o
 .bss.arp_packet_handler
                0x000000004a096254        0x4 net/built-in.o
 .bss.net_netmask
                0x000000004a096258        0x4 net/built-in.o
                0x000000004a096258                net_netmask
 .bss.net_pkt_buf
                0x000000004a09625c     0x1e40 net/built-in.o
 .bss.net_ip    0x000000004a09809c        0x4 net/built-in.o
                0x000000004a09809c                net_ip
 .bss.net_rx_packet_len
                0x000000004a0980a0        0x4 net/built-in.o
                0x000000004a0980a0                net_rx_packet_len
 .bss.net_tx_packet
                0x000000004a0980a4        0x4 net/built-in.o
                0x000000004a0980a4                net_tx_packet
 .bss.time_handler
                0x000000004a0980a8        0x4 net/built-in.o
 .bss.push_packet
                0x000000004a0980ac        0x4 net/built-in.o
                0x000000004a0980ac                push_packet
 .bss.net_boot_file_size
                0x000000004a0980b0        0x4 net/built-in.o
                0x000000004a0980b0                net_boot_file_size
 .bss.nfs_server_mount_port
                0x000000004a0980b4        0x4 net/built-in.o
 .bss.nfs_server_ip
                0x000000004a0980b8        0x4 net/built-in.o
 .bss.nfs_filename
                0x000000004a0980bc        0x4 net/built-in.o
 .bss.nfs_state
                0x000000004a0980c0        0x4 net/built-in.o
 .bss.filefh3_length
                0x000000004a0980c4        0x4 net/built-in.o
 .bss.dirfh     0x000000004a0980c8       0x20 net/built-in.o
 .bss.rpc_id    0x000000004a0980e8        0x4 net/built-in.o
 .bss.fs_mounted
                0x000000004a0980ec        0x4 net/built-in.o
 .bss.nfs_len   0x000000004a0980f0        0x4 net/built-in.o
 .bss.nfs_server_port
                0x000000004a0980f4        0x4 net/built-in.o
 .bss.nfs_download_state
                0x000000004a0980f8        0x4 net/built-in.o
 .bss.nfs_path  0x000000004a0980fc        0x4 net/built-in.o
 .bss.nfs_path_buff
                0x000000004a098100      0x800 net/built-in.o
 .bss.nfs_timeout_count
                0x000000004a098900        0x4 net/built-in.o
 .bss.filefh    0x000000004a098904       0x40 net/built-in.o
 .bss.nfs_our_port
                0x000000004a098944        0x4 net/built-in.o
 .bss.net_ping_ip
                0x000000004a098948        0x4 net/built-in.o
                0x000000004a098948                net_ping_ip
 .bss.ping_seq_number
                0x000000004a09894c        0x2 net/built-in.o
 *fill*         0x000000004a09894e        0x2 
 .bss.tftp_prev_block
                0x000000004a098950        0x4 net/built-in.o
 .bss.timeout_count
                0x000000004a098954        0x4 net/built-in.o
 .bss.tftp_block_wrap
                0x000000004a098958        0x4 net/built-in.o
 .bss.default_filename
                0x000000004a09895c        0xd net/built-in.o
 *fill*         0x000000004a098969        0x3 
 .bss.tftp_remote_port
                0x000000004a09896c        0x4 net/built-in.o
 .bss.tftp_cur_block
                0x000000004a098970        0x4 net/built-in.o
 .bss.tftp_remote_ip
                0x000000004a098974        0x4 net/built-in.o
 .bss.tftp_our_port
                0x000000004a098978        0x4 net/built-in.o
 .bss.tftp_state
                0x000000004a09897c        0x4 net/built-in.o
 .bss.tftp_filename
                0x000000004a098980       0x80 net/built-in.o
 .bss.tftp_block_wrap_offset
                0x000000004a098a00        0x4 net/built-in.o
                0x000000004a098a04                . = ALIGN (0x4)
                0x000000004a098a04                __bss_limit = .

.bss_end        0x000000004a098a04        0x0
 *(.__bss_end)
 .__bss_end     0x000000004a098a04        0x0 arch/arm/lib/built-in.o
                0x000000004a098a04                __bss_end

.dynsym         0x000000004a0672c0       0x60
 *(.dynsym)
 .dynsym        0x000000004a0672c0       0x60 arch/arm/cpu/armv7/start.o

.dynbss         0x000000004a067320        0x0
 *(.dynbss)
 .dynbss        0x000000004a067320        0x0 arch/arm/cpu/armv7/start.o

.dynstr         0x000000004a067320       0x2a
 *(.dynstr*)
 .dynstr        0x000000004a067320       0x2a arch/arm/cpu/armv7/start.o

.dynamic        0x000000004a06734c       0x88
 *(.dynamic*)
 .dynamic       0x000000004a06734c       0x88 arch/arm/cpu/armv7/start.o
                0x000000004a06734c                _DYNAMIC

.plt            0x000000004a0673d4        0x0
 *(.plt*)
 .plt           0x000000004a0673d4        0x0 arch/arm/cpu/armv7/start.o

.interp
 *(.interp*)

.gnu.hash
 *(.gnu.hash)

.gnu            0x000000004a0673d4        0x0
 *(.gnu*)
 .gnu.version_d
                0x000000004a0673d4        0x0 arch/arm/cpu/armv7/start.o
 .gnu.version   0x000000004a0673d4        0x0 arch/arm/cpu/armv7/start.o
 .gnu.version_r
                0x000000004a0673d4        0x0 arch/arm/cpu/armv7/start.o

.ARM.exidx
 *(.ARM.exidx*)

.gnu.linkonce.armexidx
 *(.gnu.linkonce.armexidx.*)
LOAD arch/arm/cpu/armv7/start.o
START GROUP
LOAD arch/arm/cpu/built-in.o
LOAD arch/arm/cpu/armv7/built-in.o
LOAD arch/arm/lib/built-in.o
LOAD arch/arm/mach-sunxi/built-in.o
LOAD board/sunxi/built-in.o
LOAD cmd/built-in.o
LOAD common/built-in.o
LOAD disk/built-in.o
LOAD drivers/built-in.o
LOAD drivers/dma/built-in.o
LOAD drivers/gpio/built-in.o
LOAD drivers/i2c/built-in.o
LOAD drivers/mmc/built-in.o
LOAD drivers/mtd/built-in.o
LOAD drivers/mtd/onenand/built-in.o
LOAD drivers/mtd/spi/built-in.o
LOAD drivers/net/built-in.o
LOAD drivers/net/phy/built-in.o
LOAD drivers/pci/built-in.o
LOAD drivers/power/built-in.o
LOAD drivers/power/battery/built-in.o
LOAD drivers/power/domain/built-in.o
LOAD drivers/power/fuel_gauge/built-in.o
LOAD drivers/power/mfd/built-in.o
LOAD drivers/power/pmic/built-in.o
LOAD drivers/power/regulator/built-in.o
LOAD drivers/serial/built-in.o
LOAD drivers/spi/built-in.o
LOAD drivers/usb/common/built-in.o
LOAD drivers/usb/dwc3/built-in.o
LOAD drivers/usb/emul/built-in.o
LOAD drivers/usb/eth/built-in.o
LOAD drivers/usb/gadget/built-in.o
LOAD drivers/usb/gadget/udc/built-in.o
LOAD drivers/usb/host/built-in.o
LOAD drivers/usb/musb-new/built-in.o
LOAD drivers/usb/musb/built-in.o
LOAD drivers/usb/phy/built-in.o
LOAD drivers/usb/ulpi/built-in.o
LOAD fs/built-in.o
LOAD lib/built-in.o
LOAD net/built-in.o
LOAD test/built-in.o
LOAD test/dm/built-in.o
END GROUP
LOAD arch/arm/lib/eabi_compat.o
LOAD arch/arm/lib/lib.a
OUTPUT(u-boot elf32-littlearm)

.ARM.attributes
                0x0000000000000000       0x2f
 .ARM.attributes
                0x0000000000000000       0x1f arch/arm/cpu/armv7/start.o
 .ARM.attributes
                0x000000000000001f       0x31 arch/arm/cpu/armv7/built-in.o
 .ARM.attributes
                0x0000000000000050       0x2b arch/arm/lib/built-in.o
 .ARM.attributes
                0x000000000000007b       0x2d arch/arm/mach-sunxi/built-in.o
 .ARM.attributes
                0x00000000000000a8       0x2d board/sunxi/built-in.o
 .ARM.attributes
                0x00000000000000d5       0x2d cmd/built-in.o
 .ARM.attributes
                0x0000000000000102       0x2d common/built-in.o
 .ARM.attributes
                0x000000000000012f       0x2d disk/built-in.o
 .ARM.attributes
                0x000000000000015c       0x2d drivers/built-in.o
 .ARM.attributes
                0x0000000000000189       0x2d drivers/gpio/built-in.o
 .ARM.attributes
                0x00000000000001b6       0x2d drivers/i2c/built-in.o
 .ARM.attributes
                0x00000000000001e3       0x2d drivers/mmc/built-in.o
 .ARM.attributes
                0x0000000000000210       0x2d drivers/net/built-in.o
 .ARM.attributes
                0x000000000000023d       0x2d drivers/net/phy/built-in.o
 .ARM.attributes
                0x000000000000026a       0x2d drivers/power/built-in.o
 .ARM.attributes
                0x0000000000000297       0x2d drivers/serial/built-in.o
 .ARM.attributes
                0x00000000000002c4       0x2d drivers/usb/host/built-in.o
 .ARM.attributes
                0x00000000000002f1       0x2d fs/built-in.o
 .ARM.attributes
                0x000000000000031e       0x2d lib/built-in.o
 .ARM.attributes
                0x000000000000034b       0x2d net/built-in.o
 .ARM.attributes
                0x0000000000000378       0x2d test/dm/built-in.o
 .ARM.attributes
                0x00000000000003a5       0x1f arch/arm/lib/lib.a(ashldi3.o)
 .ARM.attributes
                0x00000000000003c4       0x1f arch/arm/lib/lib.a(lib1funcs.o)
 .ARM.attributes
                0x00000000000003e3       0x1f arch/arm/lib/lib.a(lshrdi3.o)
 .ARM.attributes
                0x0000000000000402       0x2d arch/arm/lib/lib.a(div0.o)

.comment        0x0000000000000000       0x1f
 .comment       0x0000000000000000       0x1f arch/arm/cpu/armv7/built-in.o
                                        0x120 (size before relaxing)
 .comment       0x000000000000001f      0x140 arch/arm/lib/built-in.o
 .comment       0x000000000000001f      0x100 arch/arm/mach-sunxi/built-in.o
 .comment       0x000000000000001f       0x80 board/sunxi/built-in.o
 .comment       0x000000000000001f      0x4a0 cmd/built-in.o
 .comment       0x000000000000001f      0x500 common/built-in.o
 .comment       0x000000000000001f       0x80 disk/built-in.o
 .comment       0x000000000000001f      0x2a0 drivers/built-in.o
 .comment       0x000000000000001f       0x40 drivers/gpio/built-in.o
 .comment       0x000000000000001f       0x40 drivers/i2c/built-in.o
 .comment       0x000000000000001f       0x80 drivers/mmc/built-in.o
 .comment       0x000000000000001f       0x20 drivers/net/built-in.o
 .comment       0x000000000000001f       0x40 drivers/net/phy/built-in.o
 .comment       0x000000000000001f       0x20 drivers/power/built-in.o
 .comment       0x000000000000001f       0x40 drivers/serial/built-in.o
 .comment       0x000000000000001f       0xa0 drivers/usb/host/built-in.o
 .comment       0x000000000000001f       0xc0 fs/built-in.o
 .comment       0x000000000000001f      0x660 lib/built-in.o
 .comment       0x000000000000001f      0x120 net/built-in.o
 .comment       0x000000000000001f       0x20 test/dm/built-in.o
 .comment       0x000000000000001f       0x20 arch/arm/lib/lib.a(div0.o)

.note.GNU-stack
                0x0000000000000000        0x0
 .note.GNU-stack
                0x0000000000000000        0x0 arch/arm/cpu/armv7/built-in.o
 .note.GNU-stack
                0x0000000000000000        0x0 arch/arm/lib/built-in.o
 .note.GNU-stack
                0x0000000000000000        0x0 arch/arm/mach-sunxi/built-in.o
 .note.GNU-stack
                0x0000000000000000        0x0 board/sunxi/built-in.o
 .note.GNU-stack
                0x0000000000000000        0x0 cmd/built-in.o
 .note.GNU-stack
                0x0000000000000000        0x0 common/built-in.o
 .note.GNU-stack
                0x0000000000000000        0x0 disk/built-in.o
 .note.GNU-stack
                0x0000000000000000        0x0 drivers/built-in.o
 .note.GNU-stack
                0x0000000000000000        0x0 drivers/gpio/built-in.o
 .note.GNU-stack
                0x0000000000000000        0x0 drivers/i2c/built-in.o
 .note.GNU-stack
                0x0000000000000000        0x0 drivers/mmc/built-in.o
 .note.GNU-stack
                0x0000000000000000        0x0 drivers/net/built-in.o
 .note.GNU-stack
                0x0000000000000000        0x0 drivers/net/phy/built-in.o
 .note.GNU-stack
                0x0000000000000000        0x0 drivers/power/built-in.o
 .note.GNU-stack
                0x0000000000000000        0x0 drivers/serial/built-in.o
 .note.GNU-stack
                0x0000000000000000        0x0 drivers/usb/host/built-in.o
 .note.GNU-stack
                0x0000000000000000        0x0 fs/built-in.o
 .note.GNU-stack
                0x0000000000000000        0x0 lib/built-in.o
 .note.GNU-stack
                0x0000000000000000        0x0 net/built-in.o
 .note.GNU-stack
                0x0000000000000000        0x0 test/dm/built-in.o
 .note.GNU-stack
                0x0000000000000000        0x0 arch/arm/lib/lib.a(div0.o)

.debug_line     0x0000000000000000    0x22f35
 .debug_line    0x0000000000000000       0x89 arch/arm/cpu/armv7/start.o
 .debug_line    0x0000000000000089      0xb63 arch/arm/cpu/armv7/built-in.o
 .debug_line    0x0000000000000bec     0x1007 arch/arm/lib/built-in.o
 .debug_line    0x0000000000001bf3      0x946 arch/arm/mach-sunxi/built-in.o
 .debug_line    0x0000000000002539      0x56d board/sunxi/built-in.o
 .debug_line    0x0000000000002aa6     0x4c31 cmd/built-in.o
 .debug_line    0x00000000000076d7     0x7b18 common/built-in.o
 .debug_line    0x000000000000f1ef     0x10ad disk/built-in.o
 .debug_line    0x000000000001029c     0x3426 drivers/built-in.o
 .debug_line    0x00000000000136c2      0x996 drivers/gpio/built-in.o
 .debug_line    0x0000000000014058      0x511 drivers/i2c/built-in.o
 .debug_line    0x0000000000014569      0xf48 drivers/mmc/built-in.o
 .debug_line    0x00000000000154b1      0x4c6 drivers/net/built-in.o
 .debug_line    0x0000000000015977      0x89f drivers/net/phy/built-in.o
 .debug_line    0x0000000000016216      0x1b8 drivers/power/built-in.o
 .debug_line    0x00000000000163ce      0x652 drivers/serial/built-in.o
 .debug_line    0x0000000000016a20     0x175c drivers/usb/host/built-in.o
 .debug_line    0x000000000001817c     0x1b5f fs/built-in.o
 .debug_line    0x0000000000019cdb     0x717b lib/built-in.o
 .debug_line    0x0000000000020e56     0x1e57 net/built-in.o
 .debug_line    0x0000000000022cad       0xbb test/dm/built-in.o
 .debug_line    0x0000000000022d68       0x4c arch/arm/lib/lib.a(ashldi3.o)
 .debug_line    0x0000000000022db4       0xf1 arch/arm/lib/lib.a(lib1funcs.o)
 .debug_line    0x0000000000022ea5       0x4c arch/arm/lib/lib.a(lshrdi3.o)
 .debug_line    0x0000000000022ef1       0x44 arch/arm/lib/lib.a(div0.o)

.debug_info     0x0000000000000000    0xd4caa
 .debug_info    0x0000000000000000       0x6f arch/arm/cpu/armv7/start.o
 .debug_info    0x000000000000006f     0x2a59 arch/arm/cpu/armv7/built-in.o
 .debug_info    0x0000000000002ac8     0x4ad1 arch/arm/lib/built-in.o
 .debug_info    0x0000000000007599     0x2a35 arch/arm/mach-sunxi/built-in.o
 .debug_info    0x0000000000009fce     0x20ae board/sunxi/built-in.o
 .debug_info    0x000000000000c07c    0x218cd cmd/built-in.o
 .debug_info    0x000000000002d949    0x2eb40 common/built-in.o
 .debug_info    0x000000000005c489     0x6070 disk/built-in.o
 .debug_info    0x00000000000624f9    0x15c37 drivers/built-in.o
 .debug_info    0x0000000000078130     0x3d90 drivers/gpio/built-in.o
 .debug_info    0x000000000007bec0     0x2584 drivers/i2c/built-in.o
 .debug_info    0x000000000007e444     0x618e drivers/mmc/built-in.o
 .debug_info    0x00000000000845d2     0x2aa1 drivers/net/built-in.o
 .debug_info    0x0000000000087073     0x36da drivers/net/phy/built-in.o
 .debug_info    0x000000000008a74d      0x7b6 drivers/power/built-in.o
 .debug_info    0x000000000008af03     0x2e7c drivers/serial/built-in.o
 .debug_info    0x000000000008dd7f     0xd271 drivers/usb/host/built-in.o
 .debug_info    0x000000000009aff0     0xa315 fs/built-in.o
 .debug_info    0x00000000000a5305    0x24ad3 lib/built-in.o
 .debug_info    0x00000000000c9dd8     0xa947 net/built-in.o
 .debug_info    0x00000000000d471f      0x3f5 test/dm/built-in.o
 .debug_info    0x00000000000d4b14       0x6b arch/arm/lib/lib.a(ashldi3.o)
 .debug_info    0x00000000000d4b7f       0x69 arch/arm/lib/lib.a(lib1funcs.o)
 .debug_info    0x00000000000d4be8       0x6b arch/arm/lib/lib.a(lshrdi3.o)
 .debug_info    0x00000000000d4c53       0x57 arch/arm/lib/lib.a(div0.o)

.debug_abbrev   0x0000000000000000    0x24290
 .debug_abbrev  0x0000000000000000       0x14 arch/arm/cpu/armv7/start.o
 .debug_abbrev  0x0000000000000014      0xeff arch/arm/cpu/armv7/built-in.o
 .debug_abbrev  0x0000000000000f13     0x126f arch/arm/lib/built-in.o
 .debug_abbrev  0x0000000000002182      0xca2 arch/arm/mach-sunxi/built-in.o
 .debug_abbrev  0x0000000000002e24      0x7b9 board/sunxi/built-in.o
 .debug_abbrev  0x00000000000035dd     0x5c62 cmd/built-in.o
 .debug_abbrev  0x000000000000923f     0x7b6d common/built-in.o
 .debug_abbrev  0x0000000000010dac     0x1012 disk/built-in.o
 .debug_abbrev  0x0000000000011dbe     0x36f5 drivers/built-in.o
 .debug_abbrev  0x00000000000154b3      0x86e drivers/gpio/built-in.o
 .debug_abbrev  0x0000000000015d21      0x711 drivers/i2c/built-in.o
 .debug_abbrev  0x0000000000016432      0xfd4 drivers/mmc/built-in.o
 .debug_abbrev  0x0000000000017406      0x48c drivers/net/built-in.o
 .debug_abbrev  0x0000000000017892      0x734 drivers/net/phy/built-in.o
 .debug_abbrev  0x0000000000017fc6      0x237 drivers/power/built-in.o
 .debug_abbrev  0x00000000000181fd      0x77f drivers/serial/built-in.o
 .debug_abbrev  0x000000000001897c     0x13bf drivers/usb/host/built-in.o
 .debug_abbrev  0x0000000000019d3b     0x1523 fs/built-in.o
 .debug_abbrev  0x000000000001b25e     0x70e6 lib/built-in.o
 .debug_abbrev  0x0000000000022344     0x1d01 net/built-in.o
 .debug_abbrev  0x0000000000024045      0x1b3 test/dm/built-in.o
 .debug_abbrev  0x00000000000241f8       0x14 arch/arm/lib/lib.a(ashldi3.o)
 .debug_abbrev  0x000000000002420c       0x12 arch/arm/lib/lib.a(lib1funcs.o)
 .debug_abbrev  0x000000000002421e       0x14 arch/arm/lib/lib.a(lshrdi3.o)
 .debug_abbrev  0x0000000000024232       0x5e arch/arm/lib/lib.a(div0.o)

.debug_aranges  0x0000000000000000     0x5060
 .debug_aranges
                0x0000000000000000       0x20 arch/arm/cpu/armv7/start.o
 .debug_aranges
                0x0000000000000020      0x278 arch/arm/cpu/armv7/built-in.o
 .debug_aranges
                0x0000000000000298      0x300 arch/arm/lib/built-in.o
 .debug_aranges
                0x0000000000000598      0x1e8 arch/arm/mach-sunxi/built-in.o
 .debug_aranges
                0x0000000000000780       0xb8 board/sunxi/built-in.o
 .debug_aranges
                0x0000000000000838      0x980 cmd/built-in.o
 .debug_aranges
                0x00000000000011b8     0x1118 common/built-in.o
 .debug_aranges
                0x00000000000022d0      0x198 disk/built-in.o
 .debug_aranges
                0x0000000000002468      0x7a8 drivers/built-in.o
 .debug_aranges
                0x0000000000002c10      0x1d0 drivers/gpio/built-in.o
 .debug_aranges
                0x0000000000002de0       0xf0 drivers/i2c/built-in.o
 .debug_aranges
                0x0000000000002ed0      0x1d0 drivers/mmc/built-in.o
 .debug_aranges
                0x00000000000030a0       0x90 drivers/net/built-in.o
 .debug_aranges
                0x0000000000003130      0x118 drivers/net/phy/built-in.o
 .debug_aranges
                0x0000000000003248       0x50 drivers/power/built-in.o
 .debug_aranges
                0x0000000000003298      0x138 drivers/serial/built-in.o
 .debug_aranges
                0x00000000000033d0      0x288 drivers/usb/host/built-in.o
 .debug_aranges
                0x0000000000003658      0x320 fs/built-in.o
 .debug_aranges
                0x0000000000003978     0x11e0 lib/built-in.o
 .debug_aranges
                0x0000000000004b58      0x428 net/built-in.o
 .debug_aranges
                0x0000000000004f80       0x38 test/dm/built-in.o
 .debug_aranges
                0x0000000000004fb8       0x20 arch/arm/lib/lib.a(ashldi3.o)
 .debug_aranges
                0x0000000000004fd8       0x48 arch/arm/lib/lib.a(lib1funcs.o)
 .debug_aranges
                0x0000000000005020       0x20 arch/arm/lib/lib.a(lshrdi3.o)
 .debug_aranges
                0x0000000000005040       0x20 arch/arm/lib/lib.a(div0.o)

.debug_frame    0x0000000000000000     0xe2a8
 .debug_frame   0x0000000000000000      0x3e8 arch/arm/cpu/armv7/built-in.o
 .debug_frame   0x00000000000003e8      0x4a8 arch/arm/lib/built-in.o
 .debug_frame   0x0000000000000890      0x3b4 arch/arm/mach-sunxi/built-in.o
 .debug_frame   0x0000000000000c44      0x170 board/sunxi/built-in.o
 .debug_frame   0x0000000000000db4     0x1a84 cmd/built-in.o
 .debug_frame   0x0000000000002838     0x3350 common/built-in.o
 .debug_frame   0x0000000000005b88      0x5b0 disk/built-in.o
 .debug_frame   0x0000000000006138     0x14dc drivers/built-in.o
 .debug_frame   0x0000000000007614      0x5fc drivers/gpio/built-in.o
 .debug_frame   0x0000000000007c10      0x2ec drivers/i2c/built-in.o
 .debug_frame   0x0000000000007efc      0x5d8 drivers/mmc/built-in.o
 .debug_frame   0x00000000000084d4      0x1c4 drivers/net/built-in.o
 .debug_frame   0x0000000000008698      0x344 drivers/net/phy/built-in.o
 .debug_frame   0x00000000000089dc       0xd8 drivers/power/built-in.o
 .debug_frame   0x0000000000008ab4      0x348 drivers/serial/built-in.o
 .debug_frame   0x0000000000008dfc      0x7e0 drivers/usb/host/built-in.o
 .debug_frame   0x00000000000095dc      0xabc fs/built-in.o
 .debug_frame   0x000000000000a098     0x346c lib/built-in.o
 .debug_frame   0x000000000000d504      0xd08 net/built-in.o
 .debug_frame   0x000000000000e20c       0x7c test/dm/built-in.o
 .debug_frame   0x000000000000e288       0x20 arch/arm/lib/lib.a(div0.o)

.debug_str      0x0000000000000000    0x19c3c
 .debug_str     0x0000000000000000      0xdb0 arch/arm/cpu/armv7/built-in.o
                                       0x25db (size before relaxing)
 .debug_str     0x0000000000000db0     0x18ff arch/arm/lib/built-in.o
                                       0x43f5 (size before relaxing)
 .debug_str     0x00000000000026af      0x91f arch/arm/mach-sunxi/built-in.o
                                       0x2336 (size before relaxing)
 .debug_str     0x0000000000002fce      0x626 board/sunxi/built-in.o
                                       0x1b30 (size before relaxing)
 .debug_str     0x00000000000035f4     0x455d cmd/built-in.o
                                      0x1338b (size before relaxing)
 .debug_str     0x0000000000007b51     0x4780 common/built-in.o
                                      0x1ccf5 (size before relaxing)
 .debug_str     0x000000000000c2d1      0xb59 disk/built-in.o
                                       0x27af (size before relaxing)
 .debug_str     0x000000000000ce2a     0x3618 drivers/built-in.o
                                       0xec00 (size before relaxing)
 .debug_str     0x0000000000010442      0x53e drivers/gpio/built-in.o
                                       0x2250 (size before relaxing)
 .debug_str     0x0000000000010980      0x469 drivers/i2c/built-in.o
                                       0x115e (size before relaxing)
 .debug_str     0x0000000000010de9      0x716 drivers/mmc/built-in.o
                                       0x29cd (size before relaxing)
 .debug_str     0x00000000000114ff      0x5bd drivers/net/built-in.o
                                       0x1682 (size before relaxing)
 .debug_str     0x0000000000011abc      0x2e4 drivers/net/phy/built-in.o
                                       0x18bd (size before relaxing)
 .debug_str     0x0000000000011da0      0x1ae drivers/power/built-in.o
                                        0x4cb (size before relaxing)
 .debug_str     0x0000000000011f4e      0x498 drivers/serial/built-in.o
                                       0x1f1d (size before relaxing)
 .debug_str     0x00000000000123e6      0xe73 drivers/usb/host/built-in.o
                                       0x6da9 (size before relaxing)
 .debug_str     0x0000000000013259     0x1401 fs/built-in.o
                                       0x43e4 (size before relaxing)
 .debug_str     0x000000000001465a     0x4169 lib/built-in.o
                                      0x14b8d (size before relaxing)
 .debug_str     0x00000000000187c3     0x13e5 net/built-in.o
                                       0x7470 (size before relaxing)
 .debug_str     0x0000000000019ba8       0x79 test/dm/built-in.o
                                        0x3c6 (size before relaxing)
 .debug_str     0x0000000000019c21       0x1b arch/arm/lib/lib.a(div0.o)
                                        0x198 (size before relaxing)

.debug_loc      0x0000000000000000    0x6b473
 .debug_loc     0x0000000000000000      0x990 arch/arm/cpu/armv7/built-in.o
 .debug_loc     0x0000000000000990      0xdf9 arch/arm/lib/built-in.o
 .debug_loc     0x0000000000001789     0x113a arch/arm/mach-sunxi/built-in.o
 .debug_loc     0x00000000000028c3      0x3ba board/sunxi/built-in.o
 .debug_loc     0x0000000000002c7d     0xfa27 cmd/built-in.o
 .debug_loc     0x00000000000126a4    0x15f7d common/built-in.o
 .debug_loc     0x0000000000028621     0x2de1 disk/built-in.o
 .debug_loc     0x000000000002b402     0x9c64 drivers/built-in.o
 .debug_loc     0x0000000000035066     0x1c27 drivers/gpio/built-in.o
 .debug_loc     0x0000000000036c8d     0x121f drivers/i2c/built-in.o
 .debug_loc     0x0000000000037eac     0x2fd2 drivers/mmc/built-in.o
 .debug_loc     0x000000000003ae7e     0x120e drivers/net/built-in.o
 .debug_loc     0x000000000003c08c     0x25c6 drivers/net/phy/built-in.o
 .debug_loc     0x000000000003e652      0x44c drivers/power/built-in.o
 .debug_loc     0x000000000003ea9e      0xc9e drivers/serial/built-in.o
 .debug_loc     0x000000000003f73c     0x6009 drivers/usb/host/built-in.o
 .debug_loc     0x0000000000045745     0x7423 fs/built-in.o
 .debug_loc     0x000000000004cb68    0x194da lib/built-in.o
 .debug_loc     0x0000000000066042     0x51a7 net/built-in.o
 .debug_loc     0x000000000006b1e9      0x28a test/dm/built-in.o

.debug_ranges   0x0000000000000000     0x9470
 .debug_ranges  0x0000000000000000      0x230 arch/arm/cpu/armv7/built-in.o
 .debug_ranges  0x0000000000000230      0x258 arch/arm/lib/built-in.o
 .debug_ranges  0x0000000000000488      0x180 arch/arm/mach-sunxi/built-in.o
 .debug_ranges  0x0000000000000608       0xe0 board/sunxi/built-in.o
 .debug_ranges  0x00000000000006e8     0x1100 cmd/built-in.o
 .debug_ranges  0x00000000000017e8     0x1ef8 common/built-in.o
 .debug_ranges  0x00000000000036e0      0x588 disk/built-in.o
 .debug_ranges  0x0000000000003c68     0x1090 drivers/built-in.o
 .debug_ranges  0x0000000000004cf8      0x238 drivers/gpio/built-in.o
 .debug_ranges  0x0000000000004f30      0x290 drivers/i2c/built-in.o
 .debug_ranges  0x00000000000051c0      0x4e0 drivers/mmc/built-in.o
 .debug_ranges  0x00000000000056a0      0x278 drivers/net/built-in.o
 .debug_ranges  0x0000000000005918      0x3e0 drivers/net/phy/built-in.o
 .debug_ranges  0x0000000000005cf8       0x60 drivers/power/built-in.o
 .debug_ranges  0x0000000000005d58      0x168 drivers/serial/built-in.o
 .debug_ranges  0x0000000000005ec0      0x698 drivers/usb/host/built-in.o
 .debug_ranges  0x0000000000006558      0x898 fs/built-in.o
 .debug_ranges  0x0000000000006df0     0x1dc0 lib/built-in.o
 .debug_ranges  0x0000000000008bb0      0x848 net/built-in.o
 .debug_ranges  0x00000000000093f8       0x28 test/dm/built-in.o
 .debug_ranges  0x0000000000009420       0x40 arch/arm/lib/lib.a(lib1funcs.o)
 .debug_ranges  0x0000000000009460       0x10 arch/arm/lib/lib.a(div0.o)
